
Discarded input sections

 .data          0x0000000000000000        0x0 D:/rda5981/code/IoT-RDA5836_3.3/build/5856T_nolcd/btcpu/platform/chip/5856/btcpu/obj/debug/btcpu_flash.o
 .bss           0x0000000000000000        0x0 D:/rda5981/code/IoT-RDA5836_3.3/build/5856T_nolcd/btcpu/platform/chip/5856/btcpu/obj/debug/btcpu_flash.o
 .reginfo       0x0000000000000000       0x18 D:/rda5981/code/IoT-RDA5836_3.3/build/5856T_nolcd/btcpu/platform/chip/5856/btcpu/obj/debug/btcpu_flash.o
 .pdr           0x0000000000000000        0x0 D:/rda5981/code/IoT-RDA5836_3.3/build/5856T_nolcd/btcpu/platform/chip/5856/btcpu/obj/debug/btcpu_flash.o
 .debug_aranges
                0x0000000000000000     0x6e08 build/5856T_nolcd/btcpu/RDA5856/stripped_BTCPU_elf_file.elf
 .debug_pubnames
                0x0000000000000000    0x1a241 build/5856T_nolcd/btcpu/RDA5856/stripped_BTCPU_elf_file.elf
 .debug_info    0x0000000000000000   0x1139a5 build/5856T_nolcd/btcpu/RDA5856/stripped_BTCPU_elf_file.elf
 .debug_abbrev  0x0000000000000000    0x1bff4 build/5856T_nolcd/btcpu/RDA5856/stripped_BTCPU_elf_file.elf
 .debug_line    0x0000000000000000    0x2f339 build/5856T_nolcd/btcpu/RDA5856/stripped_BTCPU_elf_file.elf
 .debug_frame   0x0000000000000000    0x134c4 build/5856T_nolcd/btcpu/RDA5856/stripped_BTCPU_elf_file.elf
 .debug_str     0x0000000000000000    0x32c51 build/5856T_nolcd/btcpu/RDA5856/stripped_BTCPU_elf_file.elf
 .debug_loc     0x0000000000000000    0x50771 build/5856T_nolcd/btcpu/RDA5856/stripped_BTCPU_elf_file.elf
 .comment       0x0000000000000000       0x31 build/5856T_nolcd/btcpu/RDA5856/stripped_BTCPU_elf_file.elf
 .comment       0x0000000000000000       0x31 build/5856T_nolcd/stripped_rom_elf_file.elf
 .debug_aranges
                0x0000000000000000     0x1728 build/5856T_nolcd/stripped_rom_elf_file.elf
 .debug_pubnames
                0x0000000000000000     0x3c4b build/5856T_nolcd/stripped_rom_elf_file.elf
 .debug_info    0x0000000000000000    0x23c48 build/5856T_nolcd/stripped_rom_elf_file.elf
 .debug_abbrev  0x0000000000000000     0x6eb1 build/5856T_nolcd/stripped_rom_elf_file.elf
 .debug_line    0x0000000000000000     0xa3c5 build/5856T_nolcd/stripped_rom_elf_file.elf
 .debug_frame   0x0000000000000000     0x3818 build/5856T_nolcd/stripped_rom_elf_file.elf
 .debug_str     0x0000000000000000     0xf43e build/5856T_nolcd/stripped_rom_elf_file.elf
 .debug_loc     0x0000000000000000     0xbefb build/5856T_nolcd/stripped_rom_elf_file.elf
 .comment       0x0000000000000000       0x31 build/5856T_nolcd/btcpu/RDA5856/stripped_BTCPU_rom_elf_file.elf
 .debug_aranges
                0x0000000000000000     0x4f98 build/5856T_nolcd/btcpu/RDA5856/stripped_BTCPU_rom_elf_file.elf
 .debug_pubnames
                0x0000000000000000    0x13879 build/5856T_nolcd/btcpu/RDA5856/stripped_BTCPU_rom_elf_file.elf
 .debug_info    0x0000000000000000    0xeee2b build/5856T_nolcd/btcpu/RDA5856/stripped_BTCPU_rom_elf_file.elf
 .debug_abbrev  0x0000000000000000    0x15d6b build/5856T_nolcd/btcpu/RDA5856/stripped_BTCPU_rom_elf_file.elf
 .debug_line    0x0000000000000000    0x236f0 build/5856T_nolcd/btcpu/RDA5856/stripped_BTCPU_rom_elf_file.elf
 .debug_frame   0x0000000000000000     0xda74 build/5856T_nolcd/btcpu/RDA5856/stripped_BTCPU_rom_elf_file.elf
 .debug_str     0x0000000000000000    0x229ce build/5856T_nolcd/btcpu/RDA5856/stripped_BTCPU_rom_elf_file.elf
 .debug_loc     0x0000000000000000    0x33628 build/5856T_nolcd/btcpu/RDA5856/stripped_BTCPU_rom_elf_file.elf

Memory Configuration

Name             Origin             Length             Attributes
*default*        0x0000000000000000 0xffffffffffffffff

Linker script and memory map

LOAD D:/rda5981/code/IoT-RDA5836_3.3/build/5856T_nolcd/res.bin.o
LOAD D:/rda5981/code/IoT-RDA5836_3.3/build/5856T_nolcd/btcpu/platform/chip/5856/btcpu/obj/debug/btcpu_flash.o
                0xffffffffa8000000                . = 0xffffffffa8000000
                0xffffffffa8000000                _iota_flash_start = .

.flash_start_code
                0xffffffffa8000000       0x30
 *btcpu_flash.o(.text)
 .text          0xffffffffa8000000       0x20 D:/rda5981/code/IoT-RDA5836_3.3/build/5856T_nolcd/btcpu/platform/chip/5856/btcpu/obj/debug/btcpu_flash.o
                0xffffffffa8000000                _flash_btcpu_start
                0xffffffffa8000020        0x4 LONG 0xffffffff
                0xffffffffa8000024        0x4 LONG 0xffffffff
                0xffffffffa8000028        0x4 LONG 0xffffffff
                0xffffffffa800002c        0x4 LONG 0xffffffff
                0xffffffffa8000030                . = ALIGN (0x10)

.bt_boot_code   0xffffffffa8000030      0x1d4
 build/5856T_nolcd/btcpu/RDA5856/stripped_BTCPU_elf_file.elf(.bt_boot_code)
 .bt_boot_code  0xffffffffa8000030      0x1d4 build/5856T_nolcd/btcpu/RDA5856/stripped_BTCPU_elf_file.elf
                0xffffffffa8000030                entry
                0xffffffffa8000040                BT_CPU_Main

.btirq_text     0xffffffffa1c80000      0x170 load address 0xffffffffa8000204
 build/5856T_nolcd/btcpu/RDA5856/stripped_BTCPU_elf_file.elf(.btirq_text)
 .btirq_text    0xffffffffa1c80000      0x170 build/5856T_nolcd/btcpu/RDA5856/stripped_BTCPU_elf_file.elf
                0xffffffffa1c80000                _bt_Irq_handler
                0xffffffffa1c80140                bt_IrqInit

.bt_sramtext    0xffffffffa1c83d50      0x550 load address 0xffffffffa8000374
 build/5856T_nolcd/btcpu/RDA5856/stripped_BTCPU_elf_file.elf(.bt_sramtext)
 .bt_sramtext   0xffffffffa1c83d50      0x550 build/5856T_nolcd/btcpu/RDA5856/stripped_BTCPU_elf_file.elf
                0xffffffffa1c83d50                _bt_sram_text_start
                0xffffffffa1c83d51                LSLCacc_Extract_Packet_Z
                0xffffffffa1c83ff5                LSLCpkt_Process_Rx_Packet_Z
                0xffffffffa1c8404d                HW_Wait_Flash_Write
                0xffffffffa1c8407d                SYSirq_IRQ_Handler5855
                0xffffffffa1c841c5                SYSirq_Handle
                0xffffffffa1c841fd                BTq_BB_Dequeue_Next_Synchronous2

.bt_sramdata    0xffffffffa1c842a0      0x150 load address 0xffffffffa80008c4
 build/5856T_nolcd/btcpu/RDA5856/stripped_BTCPU_elf_file.elf(.bt_sramdata)
 .bt_sramdata   0xffffffffa1c842a0      0x150 build/5856T_nolcd/btcpu/RDA5856/stripped_BTCPU_elf_file.elf
                0xffffffffa1c842a0                btcpu_GdbGBreak
                0xffffffffa1c842a0                _bt_sram_data_start
                0xffffffffa1c842e0                soundbar_master
                0xffffffffa1c842e4                a2dp_sink_service
                0xffffffffa1c842f4                a2dp_source_service
                0xffffffffa1c84304                soundbar_in_unsniff_mode
                0xffffffffa1c84308                avrcp_ct_service
                0xffffffffa1c84318                avrcp_tg_service
                0xffffffffa1c84328                hfp_service
                0xffffffffa1c84338                RedailConfirmTime
                0xffffffffa1c8433c                calibration_counter_1ms
                0xffffffffa1c84340                calibration_counter_10us
                0xffffffffa1c84344                l2_cur_ident
                0xffffffffa1c84345                tx_quality_dm_threshold
                0xffffffffa1c84346                tx_quality_dh_threshold
                0xffffffffa1c84347                rx_quality_dm_threshold
                0xffffffffa1c84348                rx_quality_dh_threshold
                0xffffffffa1c84349                tx_quality_2m_threshold
                0xffffffffa1c8434a                tx_quality_3m_threshold
                0xffffffffa1c8434b                rx_quality_2m_threshold
                0xffffffffa1c8434c                rx_quality_3m_threshold
                0xffffffffa1c8434e                quality_min_num_packets
                0xffffffffa1c84350                LMsec_link_key_request_timeout
                0xffffffffa1c84354                LMsec_pin_code_request_timeout
                0xffffffffa1c84358                k32_clock_offest
                0xffffffffa1c8435b                rdabt_security_mode
                0xffffffffa1c8435c                rdabt_security_level
                0xffffffffa1c84384                finger_temp
                0xffffffffa1c843b0                rdabt_rfcomm_core
                0xffffffffa1c843b4                browsegroup_service
                0xffffffffa1c843c4                service_records
                0xffffffffa1c843d4                rdabt_sdp_database
                0xffffffffa1c843dc                g_MTK_EVENT_C1FC_ARRAY
                0xffffffffa1c843e4                tidp_temp

.bt_sramucdata  0xffffffffa1c843f0       0x10 load address 0xffffffffa8000a14
 build/5856T_nolcd/btcpu/RDA5856/stripped_BTCPU_elf_file.elf(.bt_sramucdata)
 .bt_sramucdata
                0xffffffffa1c843f0       0x10 build/5856T_nolcd/btcpu/RDA5856/stripped_BTCPU_elf_file.elf
                0xffffffffa1c843f0                _bt_sram_uncached_start
                0xffffffffa1c843f0                test_pka

.bt_sramucbss   0xffffffffa1c84400       0x30
 build/5856T_nolcd/btcpu/RDA5856/stripped_BTCPU_elf_file.elf(.bt_sramucbss)
 .bt_sramucbss  0xffffffffa1c84400       0x30 build/5856T_nolcd/btcpu/RDA5856/stripped_BTCPU_elf_file.elf
                0xffffffffa1c84400                host_debug_buff

.bt_srambss     0xffffffffa1c84430      0xdf0
 build/5856T_nolcd/btcpu/RDA5856/stripped_BTCPU_elf_file.elf(.bt_srambss)
 .bt_srambss    0xffffffffa1c84430      0xdf0 build/5856T_nolcd/btcpu/RDA5856/stripped_BTCPU_elf_file.elf
                0xffffffffa1c8443e                soundbar_spp_port
                0xffffffffa1c84440                gAvdtp
                0xffffffffa1c84448                gAvdtp_sep_list_head
                0xffffffffa1c84460                g_playing_cid
                0xffffffffa1c84462                g_closing_cid
                0xffffffffa1c84464                sequence
                0xffffffffa1c84468                audio_sync_data
                0xffffffffa1c84470                soundbar_control_cmd
                0xffffffffa1c84494                volume_header
                0xffffffffa1c844ba                discard_sbc_cid
                0xffffffffa1c844bc                g_loop_redundancy_counter
                0xffffffffa1c844be                BTreset_delay
                0xffffffffa1c844c0                hceg_evt_call_back_handler
                0xffffffffa1c844d0                hfp_core_msg_info
                0xffffffffa1c844dc                hfp_ports
                0xffffffffa1c844e0                gHFP
                0xffffffffa1c844f8                CleanRedailStatusFunctionHandle
                0xffffffffa1c844fc                hfp_pb_buffer
                0xffffffffa1c84500                g_hfp_dtmf_offset
                0xffffffffa1c84501                g_hfp_dtmf_len
                0xffffffffa1c84502                g_num_mem_locs
                0xffffffffa1c84503                capture_flag
                0xffffffffa1c84604                rdabt_l2_channel_list
                0xffffffffa1c84608                l2cap_disconnect_handle
                0xffffffffa1c84614                rdabt_l2cap_config_helper_list
                0xffffffffa1c84618                pending_cid
                0xffffffffa1c8461c                l2_unknown_option
                0xffffffffa1c84620                l2_config_continue
                0xffffffffa1c84624                l2_config_part
                0xffffffffa1c8462c                Transaction_Id_temp
                0xffffffffa1c84630                result_temp
                0xffffffffa1c84632                handle_temp
                0xffffffffa1c84634                _LMch_host_v12_functionality_confirmed
                0xffffffffa1c84638                _LMpol_zero_packet
                0xffffffffa1c84654                g_p_LM_Auth_info
                0xffffffffa1c8465c                g_pending_on_host_state
                0xffffffffa1c8465d                cal_dhkey_flag
                0xffffffffa1c8465e                dhkey_init_result
                0xffffffffa1c8465f                LMsec_pin_code_request_timeout_extend
                0xffffffffa1c84670                bbtest_hop_enable
                0xffffffffa1c84674                bttest_AFH_hse_kernel
                0xffffffffa1c84684                g_afh_crc_ok
                0xffffffffa1c84704                FindObjectPushServer_callback
                0xffffffffa1c84708                connect_type_obex_ftp
                0xffffffffa1c8470a                g_OppServiceSearch
                0xffffffffa1c8470c                rdabt_obex_pincode
                0xffffffffa1c84720                rdabt_obex_pinlength
                0xffffffffa1c8472c                rdabt_obex_server_transport
                0xffffffffa1c84730                rdabt_obex_transmit_transport
                0xffffffffa1c84734                rdabt_obex_connecting
                0xffffffffa1c84735                g_visible_mode
                0xffffffffa1c84738                Crdabt_timer_create
                0xffffffffa1c8473c                ftp_client_rxbuffer
                0xffffffffa1c84740                bpp_DP_rxbuffer
                0xffffffffa1c84744                bpp_PS_rxbuffer
                0xffffffffa1c8474c                rdabt_a2dp_info
                0xffffffffa1c84784                rdabt_a2dp_msg_info
                0xffffffffa1c84794                rdabt_data_msg_info
                0xffffffffa1c847a4                a2dp_play_event_flag
                0xffffffffa1c847a8                current_clk
                0xffffffffa1c847ac                avrcp_adp_info
                0xffffffffa1c847b8                avrcp_msg_info
                0xffffffffa1c847bc                rdabt_test_mode_scan_cnf
                0xffffffffa1c847c0                hfp_adp_info
                0xffffffffa1c847d4                hfp_adp_msg
                0xffffffffa1c847e4                mgr_adp_msg
                0xffffffffa1c847f0                bt_trace_buff
                0xffffffffa1c84870                rdabt_pbap
                0xffffffffa1c84890                download_pbap_timer
                0xffffffffa1c84894                spp_adp_info
                0xffffffffa1c8489c                rdabt_rfcomm_pending_list
                0xffffffffa1c848a0                rdabt_rfcomm_entity_started
                0xffffffffa1c848a4                rdabt_rfcomm_disconnection_reason
                0xffffffffa1c848a6                waiting_for_disconnect
                0xffffffffa1c848a8                p_disconnect_waiting_task
                0xffffffffa1c848ac                g_ServieSearch_cid
                0xffffffffa1c848ae                g_IsServiceCallback
                0xffffffffa1c848af                SDP_Service_Record_Num
                0xffffffffa1c848b0                rdabt_sdp_server_active
                0xffffffffa1c848b4                p_SDP_Primitive_Task_List
                0xffffffffa1c848c0                spp_peer_device
                0xffffffffa1c848c4                rdabt_rfcomm_se_head
                0xffffffffa1c848c8                _LSLCslot_tmp_state
                0xffffffffa1c848cc                SYSpwr_Halt_System_call_back_handler
                0xffffffffa1c848d0                rdabt_host_timer_id
                0xffffffffa1c848d4                rdabt_host_ticks
                0xffffffffa1c848d8                cmd_buf
                0xffffffffa1c84ad8                DATA_BUFF
                0xffffffffa1c84adc                gFirstConnectReq
                0xffffffffa1c84ae0                gIsSRCFirstConnectReq
                0xffffffffa1c84ae4                gAVRCP
                0xffffffffa1c84aec                rdabt_l2_link_full
                0xffffffffa1c84af0                _LMafh_AFH_host_channel_classification
                0xffffffffa1c84afc                _LMafh_AFH_update_timeout
                0xffffffffa1c84b0c                rdabt_w4_obex_connect_rsp
                0xffffffffa1c84b10                tidp_tt
                0xffffffffa1c84b14                rdabt_map_tid
                0xffffffffa1c84b18                rdabt_map_cid
                0xffffffffa1c84b1c                rdabt_map_select_pending
                0xffffffffa1c84b1d                rdabt_map_type
                0xffffffffa1c84b1e                rdabt_pbap_tid
                0xffffffffa1c84b20                rdabt_pbap_cid
                0xffffffffa1c84b24                rdabt_pbap_filter
                0xffffffffa1c84b2c                rdabt_pbap_format
                0xffffffffa1c84b2d                rdabt_pbap_select
                0xffffffffa1c84b2e                rdabt_pbap_type
                0xffffffffa1c84b2f                rdabt_pbap_select_pending
                0xffffffffa1c84b30                rdabt_pbap_sort_order
                0xffffffffa1c84b34                rdabt_obex_state
                0xffffffffa1c84b38                obex_registered_services
                0xffffffffa1c84b3c                obex_registered_inboxes
                0xffffffffa1c84b40                localCid
                0xffffffffa1c84b44                cap
                0xffffffffa1c84b50                hc_flow_ctrl
                0xffffffffa1c84b6c                g_hfp_dtmf_string
                0xffffffffa1c84b80                host_mem_info
                0xffffffffa1c84be0                queue_info
                0xffffffffa1c84bf8                timer_info
                0xffffffffa1c84c04                _LMch_LMP_features_req_ext_PDU
                0xffffffffa1c84c10                _LMch_LMP_features_res_ext_PDU
                0xffffffffa1c84c1c                count_edr_data
                0xffffffffa1c84c28                repeatAttemptEntries
                0xffffffffa1c84cc8                g_LM_SSP_config_info
                0xffffffffa1c84d0c                _LM_Auth_info
                0xffffffffa1c84e40                p192_comp_data
                0xffffffffa1c85104                temp_rand
                0xffffffffa1c85114                secdb
                0xffffffffa1c85128                opp_client_rxbuffer
                0xffffffffa1c8513c                mgr_adp_info
                0xffffffffa1c85184                rfcomm_core
                0xffffffffa1c8519c                sdp_replace_data
                0xffffffffa1c851bc                sdp_replace_data_length
                0xffffffffa1c851cc                combined_info
                0xffffffffa1c851dc                CodecDriver
                0xffffffffa1c851ec                rdabt_l2_acl_links
                0xffffffffa1c851fc                _LMafh_Master_LMP_set_AFH_PDU
                0xffffffffa1c8520c                _LMafh_Slave_LMP_channel_classification_PDU

.crossrefs      0xffffffffa8000a24        0xc
 build/5856T_nolcd/btcpu/RDA5856/stripped_BTCPU_elf_file.elf(.crossrefs)
 .crossrefs     0xffffffffa8000a24        0xc build/5856T_nolcd/btcpu/RDA5856/stripped_BTCPU_elf_file.elf

.bt_rotext      0xffffffffa8000a30    0x39df0
 build/5856T_nolcd/btcpu/RDA5856/stripped_BTCPU_elf_file.elf(.bt_rotext)
 .bt_rotext     0xffffffffa8000a30    0x39df0 build/5856T_nolcd/btcpu/RDA5856/stripped_BTCPU_elf_file.elf
                0xffffffffa8000a30                dbg_GdbPrint
                0xffffffffa8000a30                hal_DbgGdbPrintf
                0xffffffffa8000a40                _bt_gdb
                0xffffffffa8000c7c                BTCPU_SendEvent2
                0xffffffffa8000cf8                SYS_SendEvent2
                0xffffffffa8000d78                SYS_ASSERT2
                0xffffffffa8000da1                btcpu_DbgGdbHstSendEvent
                0xffffffffa8000dbd                btcpu_DbgWatchDogStop
                0xffffffffa8000dc9                btcpu_GdbBreaks
                0xffffffffa8000de9                btcpu_GdbPrepare
                0xffffffffa8000e31                btcpu_GdbSendcmd
                0xffffffffa8000e55                btcpu_GdbLoop
                0xffffffffa8000f65                btcpu_GdbBreakRaise
                0xffffffffa8000fd1                btcpu_GdbBreakSoftBreakPoint
                0xffffffffa8001025                btcpu_GdbBreakBreakPoint
                0xffffffffa8001065                btcpu_GdbBreakPrint
                0xffffffffa80010cd                btcpu_GdbException
                0xffffffffa8001141                btcpu_GdbIrqDebug
                0xffffffffa8001189                btcpu_GdbBreakDivBy0
                0xffffffffa800123d                rdabt_adp_msg_dispatch
                0xffffffffa8001351                rdabt_init
                0xffffffffa80013b5                rdabt_msg_callback
                0xffffffffa8001435                rdabt_fcc_test_stop
                0xffffffffa8001445                rdabt_fcc_test
                0xffffffffa8001595                BT_Register_Modules
                0xffffffffa80015bd                rdabt_adp_free_br
                0xffffffffa80015e5                rdabt_register_sdp
                0xffffffffa8001609                rdabt_active_success
                0xffffffffa8001649                rdabt_handle_app_msg
                0xffffffffa8001e15                rdabt_get_bt_msg
                0xffffffffa8001e5d                rdabt_wait_xcpu_busy
                0xffffffffa8001e71                rdabt_clear_btcpu_busy
                0xffffffffa8001e7d                rdabt_send_msg_to_xcpu
                0xffffffffa8001f0d                Rdabt_vco_test_Write_r21
                0xffffffffa8001f4d                tgt_GetBtStackConfig
                0xffffffffa8001f59                tgt_GetBtStackModuleList
                0xffffffffa8001f65                getIndexByCid
                0xffffffffa8001f9d                Soundbar_Avdtp_Check_Sequence
                0xffffffffa8002001                Soundbar_Get_Role
                0xffffffffa800200d                Soundbar_Get_Avdtp_status
                0xffffffffa8002055                Soundbar_Sync_Play_Number
                0xffffffffa8002079                rdabt_a2dp_get_sourceclk
                0xffffffffa8002085                rdabt_a2dp_set_syncclk
                0xffffffffa8002091                rdabt_a2dp_get_syncclk
                0xffffffffa800209d                rdabt_a2dp_check_syncclock
                0xffffffffa80020c1                Soundbar_Set_Audio_Sync
                0xffffffffa80020cd                Soundbar_Set_Control_Cmd
                0xffffffffa80020d9                AVDTP_Set_Scmt
                0xffffffffa8002119                Soundbar_Set_UnSniff_Mode
                0xffffffffa8002145                getIndexByAddr
                0xffffffffa8002201                getCidByAddr
                0xffffffffa80022bd                getFreeIndex
                0xffffffffa8002311                AVDTP_Start_Media_Channel_Connection
                0xffffffffa80023c1                AVDTP_Disconnect
                0xffffffffa80024c9                AVDTP_Setup_Connect
                0xffffffffa8002561                Avdtp_Register_Sep
                0xffffffffa8002615                getA2dpPlayingAddr
                0xffffffffa800265d                Avdtp_Register_Service
                0xffffffffa8002681                Avdtp_Clean_Data
                0xffffffffa800273d                Avdtp_Validate_Service_Caps
                0xffffffffa8002941                Avdtp_Get_Current_Clock
                0xffffffffa80029a1                rdabt_a2dp_set_sourceclk
                0xffffffffa80029c9                Soundbar_Spp_Send_Data
                0xffffffffa8002a15                Avdtp_Receive_Data
                0xffffffffa8002be5                Avdtp_Response_Discover
                0xffffffffa8002ced                Avdtp_Request_Dispatcher
                0xffffffffa8002d2d                Avdtp_Response_Get_All_Capabilities
                0xffffffffa8002f5d                Avdtp_Response_Get_Capabilities
                0xffffffffa8003135                rdabt_avdtp_msg_dispatch
                0xffffffffa80031dd                rdabt_avdtp_layer_ctrl
                0xffffffffa80034d5                Avdtp_Process_Command
                0xffffffffa8003ebd                Avdtp_Process_Response
                0xffffffffa8004401                Avdtp_Send_Res
                0xffffffffa800455d                Get_Avrcp_Index_by_Addr
                0xffffffffa80045d9                Get_Avrcp_Free_Index
                0xffffffffa80045f9                Avrcp_Set_State
                0xffffffffa8004611                Avrcp_Set_Browsing_State
                0xffffffffa8004629                Avrcp_Get_Current_Volume_Notify
                0xffffffffa8004635                Avrcp_Set_Volume
                0xffffffffa8004689                Get_Avrcp_Index_by_Cid
                0xffffffffa80047f5                Avrcp_Send_Volume_Changed
                0xffffffffa800485d                Avrcp_Metadata_Transfer_Addr
                0xffffffffa8004995                Avrcp_Update_Player_Status
                0xffffffffa80049b5                Avrcp_Set_Browsing_command
                0xffffffffa8004aa9                Avrcp_Browsing_GetFolderItems_Req
                0xffffffffa8004b85                Avrcp_Browsing_SetBrowsedPlayer_Req
                0xffffffffa8004bf1                Avrcp_Browsing_Disconnect_Req
                0xffffffffa8004c3d                Avrcp_Disconnect_Req
                0xffffffffa8004cad                Avrcp_Connect_Req
                0xffffffffa8004d69                Avrcp_Set_Notification_Addr
                0xffffffffa8004dad                Avrcp_Set_Notification
                0xffffffffa8004df1                Avrcp_Get_Element_Attribute
                0xffffffffa8004e55                Avrcp_List_Player_Application_Setting_Values
                0xffffffffa8004e99                Avrcp_RegisterService
                0xffffffffa8004ed9                Get_Avrcp_State
                0xffffffffa8004f59                rdabt_avctp_msg_dispatch
                0xffffffffa8005001                rdabt_avctp_layer_ctrl
                0xffffffffa8005171                Avrcp_Send_Key_By_Addr
                0xffffffffa8005255                Avrcp_Send_Press
                0xffffffffa8005299                Avrcp_Send_Release
                0xffffffffa80052dd                Avrcp_Handle_Received_Data
                0xffffffffa8005de5                BT_Initialise
                0xffffffffa8005f6d                patch_bt_rx_Test_receive_hdr
                0xffffffffa8005f7d                patch_bt_rx_Test_process_packet
                0xffffffffa8005f8d                patch_lslc_acc_bbtest_pka
                0xffffffffa8005f9d                _BTms_Handle_HC_Sleep_If_Reqd
                0xffffffffa8005fcd                _BTms_Handle_HC_Reset_If_Reqd
                0xffffffffa800602d                BTms_Request_HC_Reset
                0xffffffffa800606d                BTms_Sched
                0xffffffffa800614d                BTtst_Initialise
                0xffffffffa8006161                BTtst_Read_Loopback_Mode
                0xffffffffa800616d                BTtst_Set_DUT_Mode
                0xffffffffa8006179                HCeg_Initialise
                0xffffffffa80061a1                HCeg_Set_Event_Mask
                0xffffffffa80061f1                HCeg_Is_Event_Masked_On
                0xffffffffa8006219                HCeg_Command_Status_Event
                0xffffffffa8006269                HCeg_Generate_Event2
                0xffffffffa80063e9                HCeg_Prepare_Command_Complete_Event_Read_Clock_Payload
                0xffffffffa80064d1                HCeg_Command_Complete_Event
                0xffffffffa8006735                HCfc_Read_SYN_Flow_Control_Enable
                0xffffffffa8006741                HCfc_Write_SYN_Flow_Control_Enable
                0xffffffffa8006769                HCfc_Release_All_SYN_Queue_Packets
                0xffffffffa80067b1                HCfc_Release_All_Data_Queue_Packets
                0xffffffffa80067f9                HCfc_Initialise
                0xffffffffa8006841                HCfc_Get_Next_HC_to_Host_SYN_Descriptor
                0xffffffffa800685d                HCfc_Get_Next_HC_to_Host_Data_Descriptor
                0xffffffffa8006879                rdabt_hci_FreeWriteBuffer
                0xffffffffa800689d                rdabt_hci_GetCommandBuffer
                0xffffffffa80068d9                rdabt_hci_GetWriteBuffer
                0xffffffffa800696d                rdabt_hci_set_high_priority_link
                0xffffffffa8006971                rdabt_hci_complete_acl_packet
                0xffffffffa8006995                HCI_Read_Raw_Rssi
                0xffffffffa80069cd                HCI_CalibClock
                0xffffffffa80069f5                HCI_EnableDUT
                0xffffffffa8006a1d                HCI_LocalExtendedFeatures
                0xffffffffa8006a51                HCI_ReadBDAddress
                0xffffffffa8006a79                HCI_ReadLocalSupportedFeatures
                0xffffffffa8006aa1                HCI_ReadLocalVersionInformation
                0xffffffffa8006ac9                HCI_WriteDefaultErroneousDataReporting
                0xffffffffa8006afd                HCI_WriteSimplePairingMode
                0xffffffffa8006b31                HCI_RefreshEncryptionKey
                0xffffffffa8006b65                HCI_WriteExtendedInquiryResponse
                0xffffffffa8006ba1                HCI_WriteInquiryMode
                0xffffffffa8006bd5                HCI_WriteLinkSupervisionTimeout
                0xffffffffa8006c19                HCI_WriteAutomaticFlushTimeout
                0xffffffffa8006c5d                HCI_WriteVoiceSetting
                0xffffffffa8006c95                HCI_WriteClassOfDevice
                0xffffffffa8006cc9                HCI_WriteInquiryScanActivity
                0xffffffffa8006d0d                HCI_WritePageScanActivity
                0xffffffffa8006d51                HCI_WriteScanEnable
                0xffffffffa8006d85                HCI_ReadLocalName
                0xffffffffa8006dad                HCI_ChangeLocalName
                0xffffffffa8006de1                HCI_Reset
                0xffffffffa8006e09                HCI_WriteLinkPolicySettings
                0xffffffffa8006e4d                HCI_RoleDiscovery
                0xffffffffa8006e85                HCI_ExitSniffMode
                0xffffffffa8006ebd                HCI_SniffMode
                0xffffffffa8006f19                HCI_SetupSynchronousConnection
                0xffffffffa8006f81                HCI_ReadClockOffset
                0xffffffffa8006fb9                HCI_ReadRemoteVersionInformation
                0xffffffffa8006ff1                HCI_ReadRemoteSupportedFeatures
                0xffffffffa8007029                HCI_SetConnectionEncryption
                0xffffffffa800706d                HCI_AuthenticationRequested
                0xffffffffa80070a5                HCI_WriteCurrentIACLAP
                0xffffffffa80071c5                HCI_DeleteStoredLinkKey
                0xffffffffa8007209                HCI_SwitchRole
                0xffffffffa800724d                HCI_IOCapabilityRequestNegativeReply
                0xffffffffa8007291                HCI_RemoteOOBDataRequestNegativeReply
                0xffffffffa80072c9                HCI_UserPasskeyRequestNegativeReply
                0xffffffffa8007301                HCI_UserPasskeyRequestReply
                0xffffffffa8007345                HCI_UserConfirmationRequestNegativeReply
                0xffffffffa800737d                HCI_UserConfirmationRequestReply
                0xffffffffa80073b5                HCI_IOCapabilityRequestReply
                0xffffffffa800740d                HCI_AcceptSynchronousConnectionRequest
                0xffffffffa8007499                HCI_RemoteNameRequest
                0xffffffffa80074f9                HCI_PINCodeRequestNegativeReply
                0xffffffffa8007531                HCI_LinkKeyRequestNegativeReply
                0xffffffffa8007569                HCI_RejectConnectionRequest
                0xffffffffa80075ad                HCI_AcceptConnectionRequest
                0xffffffffa80075f1                HCI_CreateConnection
                0xffffffffa800767d                HCI_PINCodeRequestReply
                0xffffffffa80076d5                HCI_LinkKeyRequestReply
                0xffffffffa8007721                HCI_SetEventMask
                0xffffffffa800775d                HCI_Disconnect
                0xffffffffa80077a9                rdabt_hci_receive_scodata
                0xffffffffa8007809                HCI_SendSCOData
                0xffffffffa8007881                HCI_SendRawPDU
                0xffffffffa80078ad                HF_Get_Idle_Device
                0xffffffffa80078ed                rdabt_hfp_layer_ctrl
                0xffffffffa80079a9                HF_Device_Info_Reset
                0xffffffffa8007a21                HF_Add_New_Device
                0xffffffffa8007a41                hfp_initialise
                0xffffffffa8007a99                HF_Get_Device_Info
                0xffffffffa8007afd                hfp_rfcomm_disconnect_ind
                0xffffffffa8007c55                hfp_rfcomm_connect_ind
                0xffffffffa8007e7d                HF_Clean_Op_Code
                0xffffffffa8007e99                HF_Reject_SLC
                0xffffffffa8007f0d                hfp_rfcomm_connect_cnf
                0xffffffffa80080bd                HF_Get_Number
                0xffffffffa80080fd                HF_Accept_SLC
                0xffffffffa8008321                HF_Send_Button_Press
                0xffffffffa8008351                HF_Send_Speaker_Gain
                0xffffffffa8008389                HF_BRSF_TIMER
                0xffffffffa80083d1                HF_Call_Answer
                0xffffffffa800841d                HF_Send_Raw_Data
                0xffffffffa80085c5                hfp_rfcomm_flowctrl
                0xffffffffa800864d                HF_Release_SLC
                0xffffffffa8008761                HF_ServiceDiscover
                0xffffffffa8008821                hfp_sdp_search_callback
                0xffffffffa8008a99                rdabt_hfp_msg_dispatch
                0xffffffffa8008ddd                HF_Connect_SLC
                0xffffffffa8008f15                HF_Activate
                0xffffffffa8008f81                Handle_Rx_CCWA
                0xffffffffa8008fc1                Handle_Rx_BINP
                0xffffffffa8009001                HFRedailConfirmStatusClean
                0xffffffffa8009011                Handle_Rx_CHLD
                0xffffffffa800902d                HF_Check_Call_Active
                0xffffffffa8009079                Handle_Rx_RING
                0xffffffffa80090bd                Handle_Rx_Clcc
                0xffffffffa8009175                Handle_Rx_CLIP
                0xffffffffa8009271                Handle_Rx_CIEV
                0xffffffffa800949d                HF_Get_Clcc
                0xffffffffa80094cd                HF_Multiparty_Call_Handling
                0xffffffffa8009509                HF_Get_Indicator_Status
                0xffffffffa8009539                HF_Send_Call_Hold_Test_Command
                0xffffffffa8009569                HF_Activate_CLIP
                0xffffffffa8009599                HF_DeActivate_NR_EC
                0xffffffffa80095c9                HF_Enable_Called_Waiting
                0xffffffffa80095f9                HF_Activate_Voice_Recognition
                0xffffffffa8009629                HF_Call_Accept
                0xffffffffa80096c5                HF_Get_PhoneBook
                0xffffffffa800973d                HF_Get_PhoneBook_Size
                0xffffffffa8009771                HF_Set_PhoneBook_Code
                0xffffffffa80097b1                HF_Get_Char_Code
                0xffffffffa80097e9                HF_Set_PhoneBook_PATH
                0xffffffffa80098b5                HF_Call_Reject
                0xffffffffa80098e9                HF_Call_Release
                0xffffffffa8009939                HF_Send_Set_Link_Timeout
                0xffffffffa80099bd                Handle_OK_Command
                0xffffffffa8009c55                HF_HS_Handle_AT_From_AG
                0xffffffffa800a255                HF_Send_Call_Setup
                0xffffffffa800a3a9                host_buf_release_header
                0xffffffffa800a3dd                host_buf_reserve_header
                0xffffffffa800a42d                host_buf_free
                0xffffffffa800a471                host_buf_alloc
                0xffffffffa800a4d5                host_temp_buf_alloc
                0xffffffffa800a539                RDABT_GetHostState
                0xffffffffa800a545                RDABT_SetHostState
                0xffffffffa800a551                RDABT_GetHostMode
                0xffffffffa800a55d                RDABT_AddModule
                0xffffffffa800a57d                rdabt_get_host_config
                0xffffffffa800a589                RDABT_Mode_Switch
                0xffffffffa800a5d5                RDABT_Reset
                0xffffffffa800a5f9                print_build_options
                0xffffffffa800a69d                RDABT_Start_Up
                0xffffffffa800a73d                RDABT_Shut_Down
                0xffffffffa800a7a5                rdabt_hci_HandleTimer
                0xffffffffa800a8c5                rdabt_system_scheduler_execute
                0xffffffffa800a8d5                RDABT_Initialise
                0xffffffffa800aa6d                RDABT_Execute
                0xffffffffa800ab0d                rdabt_mem_collect
                0xffffffffa800ab11                rdabt_free
                0xffffffffa800abf1                rdabt_mem_set_dualport_heap
                0xffffffffa800ac21                rdabt_malloc
                0xffffffffa800ad0d                rdabt_mem_initialise
                0xffffffffa800ad55                rdabt_enqueue_message
                0xffffffffa800ae19                rdabt_free_last_message
                0xffffffffa800aeb5                rdabt_get_next_message
                0xffffffffa800af35                rdabt_commit_message
                0xffffffffa800af65                RDABT_Send_Message
                0xffffffffa800afe9                rdabt_message_initialise
                0xffffffffa800b031                host_timer_enlist
                0xffffffffa800b0c1                host_timer_delist
                0xffffffffa800b12d                rdabt_handle_expired_timers
                0xffffffffa800b1e5                rdabt_cancel_timer
                0xffffffffa800b229                rdabt_change_timer
                0xffffffffa800b281                rdabt_timer_create
                0xffffffffa800b34d                rdabt_timer_reset
                0xffffffffa800b379                rdabt_timer_initialise
                0xffffffffa800b3c5                HWdelay_Wait_For_ms
                0xffffffffa800b3e9                HWdelay_Calibrate_
                0xffffffffa800b4b9                HWdelay_Initialise
                0xffffffffa800b4e1                _HWlc_Clear_Jalapeno_Registers
                0xffffffffa800b589                HWlc_Initialise
                0xffffffffa800b6d5                HWradio_Reset
                0xffffffffa800b70d                HWradio_Set_DriverData
                0xffffffffa800b74d                HWradio_SetTX_ovrridehigh
                0xffffffffa800b7b1                HWradio_Initialise
                0xffffffffa800b875                HWradio_Initialise_RF
                0xffffffffa800b8d5                rdabt_l2_FreeWriteBuffer
                0xffffffffa800b8f5                rdabt_l2_GetWriteBuffer
                0xffffffffa800b971                rdabt_l2_chn_stop_cfg_timer
                0xffffffffa800b9a5                rdabt_l2_chn_disable_RTX_timer
                0xffffffffa800b9dd                rdabt_l2_chn_start_ERTX_timer
                0xffffffffa800ba21                rdabt_l2_chn_start_cfg_timer
                0xffffffffa800ba4d                rdabt_l2_chn_start_RTX_timer
                0xffffffffa800ba9d                rdabt_l2_chn_set_qos
                0xffffffffa800bae9                rdabt_l2_chn_alloc_channel
                0xffffffffa800bb71                rdabt_l2_chn_get_p_channel
                0xffffffffa800bbc5                rdabt_l2_chn_handle_in_use
                0xffffffffa800bc3d                rdabt_l2_chn_free_channel
                0xffffffffa800bd39                rdabt_l2_disconnect_req_timeout
                0xffffffffa800bd81                rdabt_l2_chn_tid2channel
                0xffffffffa800bdbd                rdabt_l2_chn_cfg_timer_expired
                0xffffffffa800bdf5                rdabt_l2_chn_timer_expired
                0xffffffffa800bee1                rdabt_l2_chn_free_channels_on_handle
                0xffffffffa800c001                rdabt_l2_config_helper_startup
                0xffffffffa800c029                rdabt_l2cap_config_helper_remove_all_connections
                0xffffffffa800c051                rdabt_l2_config_helper_shutdown
                0xffffffffa800c079                rdabt_l2cap_config_helper_remove_connection
                0xffffffffa800c09d                rdabt_l2_config_helper_remove_cid
                0xffffffffa800c0c5                rdabt_l2cap_config_helper_remove_connection_by_conn
                0xffffffffa800c0ed                rdabt_l2cap_config_helper_lookup_connection
                0xffffffffa800c111                rdabt_l2cap_config_helper_add_connection
                0xffffffffa800c129                rdabt_l2_configure_helper_confirmation
                0xffffffffa800c209                rdabt_l2_configure_helper_indication
                0xffffffffa800c329                rdabt_l2_configure_helper_conn_confirm
                0xffffffffa800c3dd                L2_ConnectResponseandConfig
                0xffffffffa800c479                L2_ConnectandConfig
                0xffffffffa800c519                rdabt_l2_config_build_config_req_pdu
                0xffffffffa800c561                rdabt_l2_config_send_config_req_pdu
                0xffffffffa800c5f1                L2_ConfigureResponse
                0xffffffffa800c781                L2_Configure
                0xffffffffa800c8ed                rda_l2_get_fixed_info
                0xffffffffa800c911                L2_OutgoingAccessRequest_Callback
                0xffffffffa800c9b5                L2_Disconnect
                0xffffffffa800ca5d                rda_l2_get_extended_features
                0xffffffffa800ca71                rdabt_l2_configure_response_handler
                0xffffffffa800cc1d                rdabt_l2_configure_request_handler
                0xffffffffa800cd31                rdabt_l2_connect_response_handler
                0xffffffffa800ce05                rdabt_l2_connect_request_handler
                0xffffffffa800cfd1                L2_IncomingAccessRequest_Callback
                0xffffffffa800d091                L2_ConnectResponse
                0xffffffffa800d135                L2_GetInfo
                0xffffffffa800d1e5                rdabt_l2_connect_lp_connect_cfm
                0xffffffffa800d4a5                l2_Get_info_cb
                0xffffffffa800d5ad                rdabt_l2_connect_disconnect_ind
                0xffffffffa800d64d                rdabt_l2_information_response_handler
                0xffffffffa800d7c5                rdabt_l2_connect_incoming_pdu
                0xffffffffa800d9f9                L2_Connect_Ex
                0xffffffffa800dc09                rdabt_l2_enc_derive_identifier
                0xffffffffa800dc25                rdabt_l2_enc_set_cur_ident
                0xffffffffa800ddbd                rdabt_l2_encode_packet
                0xffffffffa800e349                rdabt_l2_decode_packet
                0xffffffffa800e7f5                rdabt_l2_psm_get_module_id
                0xffffffffa800e881                rdabt_l2_psm_event
                0xffffffffa800e8fd                rdabt_l2_sar_data_req
                0xffffffffa800ea49                rdabt_l2_sar_data_ind
                0xffffffffa800ed99                rdabt_l2_utils_addr_match
                0xffffffffa800edd1                rdabt_l2_utils_out_mtu
                0xffffffffa800edf9                rdabt_l2cap_msg_dispatch
                0xffffffffa800ee9d                rdabt_Tol2connect_lp_timerout
                0xffffffffa800ef95                rdabt_l2cap_layer_ctrl
                0xffffffffa800efcd                rdabt_l2_utils_set_bd_addr
                0xffffffffa800efdd                L2_RetrieveHandle
                0xffffffffa800f019                L2_Write
                0xffffffffa800f055                L2_GetWriteBuffer
                0xffffffffa800f071                LC_Reset_All_Callbacks
                0xffffffffa800f095                LC_Get_Hardware_SCO_CFG
                0xffffffffa800f121                LC_Register_Event_Handler
                0xffffffffa800f131                LC_Read_Local_Device_Jitter
                0xffffffffa800f151                LC_Read_Local_Device_Drift
                0xffffffffa800f171                LC_Read_Local_Device_Class
                0xffffffffa800f189                LC_Write_Local_Device_Class
                0xffffffffa800f19d                LC_Null_Callback
                0xffffffffa800f1a1                LC_Write_Device_Drift
                0xffffffffa800f1c1                LC_Write_Device_Jitter
                0xffffffffa800f1e1                LC_Write_Remote_Slot_Offset
                0xffffffffa800f219                LC_Read_Local_Slot_Offset
                0xffffffffa800f245                LC_Read_Clock_Offset
                0xffffffffa800f259                LC_Decr_Power
                0xffffffffa800f2b5                LC_Max_Power
                0xffffffffa800f2d5                LC_Incr_Power
                0xffffffffa800f325                LC_Write_Power
                0xffffffffa800f3a1                LC_Read_Power
                0xffffffffa800f3fd                LC_Create_Connection
                0xffffffffa800f4b1                LC_Sleep
                0xffffffffa800f4f9                LC_Free_Link
                0xffffffffa800f571                LC_Alloc_Link
                0xffffffffa800f59d                LC_Is_Valid_SCO_Conversion
                0xffffffffa800f5bd                LC_Initialise
                0xffffffffa800f7a5                LMaclctr_Init_buff
                0xffffffffa800f7b9                LMaclctr_Initialise
                0xffffffffa800f7d5                LMaclctr_Find_Handle2
                0xffffffffa800f815                LMaclctr_Find_ACL_Handle
                0xffffffffa800f84d                LMaclctr_Find_Bd_Addr
                0xffffffffa800f89d                LMaclctr_Free_Link
                0xffffffffa800f971                LMaclctr_Alloc_Link
                0xffffffffa800fa01                LMconnection_LM_Recent_Contact_Timeout
                0xffffffffa800fa0d                LMch_Enable_L2CAP_Traffic
                0xffffffffa800fa21                LMch_Disable_L2CAP_Traffic
                0xffffffffa800fa2d                LMconnection_LMP_Packet_Type_Table_Accepted_Ack
                0xffffffffa800fa51                LMch_CB_Enable_L2CAP_Traffic2
                0xffffffffa800fa8d                LMconnection_LMP_Accepted_Ext_Packet_Type_Table
                0xffffffffa800fb09                LMconnection_Local_Setup_Complete
                0xffffffffa800fb25                LMconnection_LMP_Accepted_Ext_eSCO_Link_Req
                0xffffffffa800fb41                LMconnection_LMP_Switch_Link_Timeout
                0xffffffffa800fb85                LMconnection_LMP_Accepted_Ext_Packet_Type_Table_To
                0xffffffffa800fb95                LMconnection_LMP_Packet_Type_Table_Req
                0xffffffffa800fc5d                _Send_LMP_Packet_Type_Table_Req
                0xffffffffa800fc8d                LMconnection_LM_Change_Packet_Type_Table
                0xffffffffa800fcf9                _Send_LMP_Remove_eSCO_Link_Req
                0xffffffffa800fd25                _Send_LMP_SCO_Link_Req
                0xffffffffa800fd65                _Accept_SCO_Link
                0xffffffffa800fd89                _Send_LMP_Remove_SCO_Link_Req
                0xffffffffa800fdc1                LMconnection_Send_LMP_Detach
                0xffffffffa800fe01                LMconnection_LM_Encrypt_Complete
                0xffffffffa800fe35                LMconnection_LM_Disconnect
                0xffffffffa800fe79                LMconnection_LMP_Name_Req
                0xffffffffa800ff21                _Send_LMP_Name_Req
                0xffffffffa800ff41                _Send_LMP_Features_Res_Ext
                0xffffffffa800ffc1                LMconnection_LMP_Features_Req_Ext
                0xffffffffa800ffed                _Send_LMP_Features_Req_Ext
                0xffffffffa801006d                LMconnection_LM_Read_Remote_Extended_Features
                0xffffffffa8010091                _Send_HC_Synchronous_Connection_Changed_Event
                0xffffffffa80100cd                _Send_HC_Synchronous_Connection_Complete_Event
                0xffffffffa801013d                _Send_HC_Remote_Extended_Features_Complete_Event
                0xffffffffa80101a1                _Send_HC_Remote_Features_Complete_Event
                0xffffffffa80101c1                LMch_Send_HC_Role_Change_Event
                0xffffffffa8010205                _Send_HC_Connection_Packet_Type_Changed_Event_SCO
                0xffffffffa8010225                _Send_HC_Connection_Request
                0xffffffffa8010285                _Send_HC_Connection_Complete_Event_SCO
                0xffffffffa8010315                LMconnection_LMP_SCO_Accepted_Ack
                0xffffffffa8010365                LMconnection_Start_Change_eSCO_Connection
                0xffffffffa80103bd                LMch_Resume_Encryption_After_Switch
                0xffffffffa80103e5                LMconnection_LM_Disconnect_SCO
                0xffffffffa8010475                _Send_HC_Connection_Complete_Event_ACL
                0xffffffffa80104e1                LMconnection_LM_Switch_Role_Complete
                0xffffffffa8010551                LMconnection_LM_Page_Complete
                0xffffffffa8010591                _Send_HC_Remote_Name_Request_Complete_Event
                0xffffffffa801062d                LMconnection_LMP_Name_Res
                0xffffffffa80106f5                _Remote_Name_Request_Timeout
                0xffffffffa8010705                _Send_HC_Disconnection_Complete
                0xffffffffa8010781                _Send_HC_Read_Remote_Name_Cancel_Command_Complete_Event
                0xffffffffa80107a9                _Send_HC_Create_Connection_Cancel_Command_Complete_Event
                0xffffffffa80107d1                LMch_Send_LMP_eSCO_Link_Req
                0xffffffffa80108a1                LMconnection_LMP_Detach_Ack
                0xffffffffa80108e5                LMconnection_LMP_Detach
                0xffffffffa8010989                _Send_LMP_Connection_PDU
                0xffffffffa8010a81                LMconnection_LMP_Features_Res_Ext
                0xffffffffa8010ad9                LMconnection_LM_Read_Remote_Supported_Features
                0xffffffffa8010afd                LMconnection_Get_eSCO_Link_Req_Context
                0xffffffffa8010b3d                LMconnection_LMP_Remove_eSCO_Link_Req
                0xffffffffa8010b79                LMconnection_LMP_Remove_eSCO_Accepted_Ext_Ack
                0xffffffffa8010bb9                LMconnection_LMP_Remove_SCO_Link_Req
                0xffffffffa8010c0d                LMconnection_LMP_Switch_Req
                0xffffffffa8010d75                LMconnection_LM_Page_Complete_NO_ERROR
                0xffffffffa8010e15                LMconnection_LMP_Switch_Timeout
                0xffffffffa8010e31                LMconnection_LM_Page_Complete_Timeout
                0xffffffffa8010e7d                LMconnection_Disconnect_Acl
                0xffffffffa8011011                LMconnection_Detach_Timeout
                0xffffffffa8011029                LMconnection_LM_Disconnect_Inf
                0xffffffffa8011045                LMconnection_LM_Incoming_Link_Inf
                0xffffffffa80110f1                LMconnection_Finalise_Connection_Setup
                0xffffffffa80111c9                LMconnection_Local_Setup_Complete2
                0xffffffffa8011221                LMconnection_LMP_Features_Res
                0xffffffffa80112cd                LMconnection_LMP_Features_Req
                0xffffffffa801132d                LMconnection_LMP_Setup_Complete
                0xffffffffa8011379                LMconnection_LM_Change_SCO_Packet_Type
                0xffffffffa80113b9                LMconnection_Switch_Complete_Success
                0xffffffffa80114cd                LMconnection_Handle_Incoming_LM_Connection_Request
                0xffffffffa8011541                LMconnection_LMP_Host_Connection_Req
                0xffffffffa801155d                LMconnection_Validate_SCO_Admission
                0xffffffffa8011605                LMconnection_LMP_SCO_Link_Req
                0xffffffffa801181d                LMconnection_LM_Add_SCO_Connection
                0xffffffffa8011949                _Finalise_Negotiate_Synchronous
                0xffffffffa8011a19                _Negotiate_Synchronous_Connection
                0xffffffffa8011b39                LMconnection_LM_Accept_eSCO_Connection_Request
                0xffffffffa8011bf9                LMconnection_LM_AutoAccept_Default_eSCO_Link
                0xffffffffa8011c7d                LMconnection_Start_New_eSCO_Connection
                0xffffffffa8011d21                LMconnection_LMP_eSCO_Link_Req
                0xffffffffa8011dcd                LMconnection_Cleanup_Reject_Synchronous_Connection_Request
                0xffffffffa8011e05                LMconnection_LMP_Accepted_Ext_eSCO_Link_Req_Timeout
                0xffffffffa8011e21                LMconnection_LMP_Not_Accepted_Ext_eSCO_Link_Req
                0xffffffffa8011e41                LMconnection_LMP_Not_Accepted
                0xffffffffa8011fcd                LMconnection_LMP_Accepted
                0xffffffffa80120b9                LMconnection_LMP_eSCO_Accepted_Ack
                0xffffffffa80120dd                LMconnection_LM_Setup_Synchronous_Connection
                0xffffffffa8012315                LMconnection_Switch_Complete_Failure
                0xffffffffa8012385                LMconnection_LM_Switch_Role
                0xffffffffa8012481                LMconnection_LM_Auth_Complete
                0xffffffffa80124c1                LMconnection_LM_Connection_Accept
                0xffffffffa80125a9                LMconnection_LM_Connection_Reject
                0xffffffffa801262d                LMconnection_LM_Accept_Synchronous_Connection_Request
                0xffffffffa80127c1                LMconnection_LM_Reject_Synchronous_Connection_Request
                0xffffffffa8012885                LMconnection_Connection_Timeout
                0xffffffffa8012899                LMconnection_LM_Disconnect_Req
                0xffffffffa8012945                LMconnection_LM_Read_Remote_Name_Cancel
                0xffffffffa80129c5                LMconnection_LM_Connection_Cancel
                0xffffffffa8012a4d                _LMconnection_Create_ACL_Connection
                0xffffffffa8012b2d                _LMconnection_Validate_ACL_Admission
                0xffffffffa8012bf9                LMconnection_LM_Read_Remote_Name
                0xffffffffa8012c8d                LMconnection_LM_Connection_Req
                0xffffffffa8012cc9                LMconnection_Initialise
                0xffffffffa8012d05                LMdisp_LMP_Not_Accepted_Common
                0xffffffffa8012d71                LMdisp_LMP_Not_Accepted_Ext
                0xffffffffa8012d81                LMdisp_LMP_Not_Accepted
                0xffffffffa8012d91                LMdisp_LMP_Unsupported_Command
                0xffffffffa8012d95                _LMdisp_Dispatch_Extended_Opcode
                0xffffffffa8012de9                _LMdisp_Clear_Any_Associated_Message_Timer
                0xffffffffa8012e95                _LMdisp_LMP_Encapsulated_Finish
                0xffffffffa8012ec9                _LMdisp_LMP_Encapsulated_Accept
                0xffffffffa8012ef5                _LMdisp_Encode_Encapsulated_Accepted_PDU
                0xffffffffa8012f1d                LMdisp_LMP_Encapsulated_Header
                0xffffffffa8012f61                LMdisp_LMP_Encapsulated_Payload
                0xffffffffa8012fe5                LMdisp_LMP_Accepted_Common
                0xffffffffa801304d                LMdisp_LMP_Accepted_Ext
                0xffffffffa801305d                LMdisp_LMP_Accepted
                0xffffffffa801306d                LMdisp_LMP_Command_Dispatcher
                0xffffffffa8013161                LMconfig_Change_Default_Pkt_Type
                0xffffffffa801316d                LMconfig_LM_Change_Local_Name
                0xffffffffa80131b1                LMconfig_LM_Read_Local_Name
                0xffffffffa80131c1                LMconfig_LM_Clear_Device_State
                0xffffffffa80131d1                LMconfig_LM_Standby_Low_Power_Timeout
                0xffffffffa801324d                LMconfig_LMP_Not_Accepted
                0xffffffffa801327d                LMconfig_LMP_Version_Res
                0xffffffffa80132c1                LMconfig_LMP_Version_Req
                0xffffffffa8013301                LMconfig_LM_Read_Remote_Version
                0xffffffffa8013345                LMconfig_Initialise
                0xffffffffa8013445                LM_Encode_Msg_Timeout
                0xffffffffa8013495                LM_Encode_LMP_PDU
                0xffffffffa801368d                LM_Encode_Encapsulated_Payload
                0xffffffffa80136e5                LM_Encode_Encapsulated_PDU
                0xffffffffa8013735                LM_Encode_LMP_Not_Accepted_Ext_PDU
                0xffffffffa8013765                LM_Encode_LMP_Not_Accepted_PDU
                0xffffffffa8013789                LM_Encode_LMP_Accepted_Ext_PDU
                0xffffffffa80137b9                LM_Encode_LMP_Accepted_PDU
                0xffffffffa80137d9                LM_Initialise
                0xffffffffa801382d                LMinq_Initialise
                0xffffffffa8013831                LMinq_Get_Inquiry_Mode
                0xffffffffa8013835                LMlc_LMP_Max_Power
                0xffffffffa8013841                LMlc_LMP_Min_Power
                0xffffffffa801384d                LMlc_LMP_Power_Control_Res
                0xffffffffa8013875                LMlc_LMP_Page_Mode_Req
                0xffffffffa8013879                LMlc_LMP_Page_Scan_Mode_Req
                0xffffffffa801387d                _Send_UL_Read_Clock_Offset_Event
                0xffffffffa8013899                LMlc_LMP_Not_Accepted
                0xffffffffa8013915                LMlc_LMP_Timing_Accuracy_Res
                0xffffffffa8013951                LMlc_LMP_Test_Control
                0xffffffffa80139a1                LMlc_LMP_Test_Activate
                0xffffffffa80139fd                LMlc_LMP_Timing_Accuracy_Req
                0xffffffffa8013a51                LMlc_LM_Power_Control_Res
                0xffffffffa8013a79                LMlc_LM_Power_Control_Req
                0xffffffffa8013ab5                LMlc_LM_Timing_Accuracy_Req
                0xffffffffa8013af9                LMlc_LM_Dec_Peer_Power
                0xffffffffa8013b4d                LMlc_LM_Inc_Peer_Power
                0xffffffffa8013ba1                LMlc_LMP_Clock_Offset_Res
                0xffffffffa8013bc5                LMlc_LMP_Slot_Offset
                0xffffffffa8013be5                LMlc_LMP_Clock_Offset_Req
                0xffffffffa8013c31                LMlc_LM_Clock_Offset_Req
                0xffffffffa8013c8d                LMlc_LMP_Incr_Power_Req
                0xffffffffa8013ccd                LMlc_LMP_Power_Control_Req
                0xffffffffa8013d1d                LMlc_LMP_Decr_Power_Req
                0xffffffffa8013d59                LMlc_LM_Read_Transmit_Power_Level
                0xffffffffa8013db1                LMkeydb_Initialise
                0xffffffffa8013db5                LMkeydb_Read_Link_Key
                0xffffffffa8013db9                LMpol_Max_Slots_Allowed
                0xffffffffa8013e19                _LMpol_Initialise_eSCO_Window_Slave_Side
                0xffffffffa8013e6d                _LMpol_Initialise_eSCO_Window
                0xffffffffa8013ef1                _LMpol_High_Priority_ACL_Data_To_Send
                0xffffffffa8013f79                _LMpol_Retransmission_Allowed
                0xffffffffa8013fdd                LMpol_Adjust_Peer_Packet_Type
                0xffffffffa8014001                LMpol_Adjust_ACL_Packet_Types_On_Link
                0xffffffffa80140b5                LMpol_Adjust_ACL_Packet_Types_On_All_Links
                0xffffffffa80140f9                LMpol_Ack_Last_Tx_Packet
                0xffffffffa8014129                LMpol_Init_SCO
                0xffffffffa801418d                LMpol_Filter_Multislot_To_Bandwidth
                0xffffffffa80141c9                LMpol_Device_Activity
                0xffffffffa8014369                LMpol_Get_Next_SCO_Tx_Activity
                0xffffffffa8014655                LMpol_Clear_Low_Power_State
                0xffffffffa8014691                LMpol_Decr_Links_In_Low_Power
                0xffffffffa8014709                _LMpol_Get_Link_Tx_Activity
                0xffffffffa80147a9                lm_edr_error_check
                0xffffffffa8014825                LMpol_Get_Next_Slave_Tx_Activity
                0xffffffffa8014915                LMpol_Sleep
                0xffffffffa80149f9                _LMpol_Get_Next_Slave_Sniff_Activity
                0xffffffffa8014ba5                LMpol_Get_Next_Slave_Rx_Activity
                0xffffffffa8014bfd                _LMpol_Get_Next_Master_Sniff_Activity
                0xffffffffa8014d29                _LMpol_Update_Sniff_Parameters
                0xffffffffa8014d61                LMpol_Is_SCO_Next_Activity
                0xffffffffa8015169                LMpol_Get_Next_Master_Tx_Activity
                0xffffffffa8015389                LMpol_Initialise
                0xffffffffa8015425                LMpolicy_LM_Role_Discovery
                0xffffffffa8015431                LMpolicy_LMP_Enable_L2cap_Traffic
                0xffffffffa801543d                LMpolicy_LM_Get_Min_Sniff_Interval
                0xffffffffa80154c1                LMpolicy_Derive_Sniff_Parameters
                0xffffffffa801563d                _Send_LMP_Sniff_Req
                0xffffffffa8015699                LMpolicy_Extract_Sniff_Parameters
                0xffffffffa801580d                LMpolicy_LM_Sniff_Mode
                0xffffffffa801590d                LMpolicy_LMP_Adjust_ACL_Packet_Types
                0xffffffffa801591d                LMpolicy_LM_Exit_Sniff_Mode
                0xffffffffa8015995                _Send_HC_Mode_Change_Event
                0xffffffffa8015a15                LMpolicy_Enter_Sniff_Mode
                0xffffffffa8015ab1                LMpolicy_LM_Return_From_Sniff
                0xffffffffa8015af5                LMpolicy_LM_Exit_Master_From_Sniff
                0xffffffffa8015b1d                LMpolicy_LMP_Unsniff_Req_Ack
                0xffffffffa8015b39                LMpolicy_LMP_Unsniff_Req
                0xffffffffa8015b9d                LMpolicy_LMP_Accepted
                0xffffffffa8015bd1                LMpolicy_LMP_Sniff_Req
                0xffffffffa8015d15                LMpolicy_LMP_Not_Accepted
                0xffffffffa8015da9                LMlpctrl_Power_Req_Ack
                0xffffffffa8015dc9                LMlpctrl_Incr_Power_Req_Ack
                0xffffffffa8015e09                LMlpctrl_Decr_Power_Req_Ack
                0xffffffffa8015e49                LMlpctrl_Scan_All_Links_Request_Peer_Power_If_Reqd
                0xffffffffa8015fa9                LMqos_Update_Allowed_Packets
                0xffffffffa8016041                LMqos_LMP_Preferred_Rate
                0xffffffffa8016169                LMqos_LMP_Auto_Rate
                0xffffffffa8016191                LMqos_LM_Read_Supervision_Timeout
                0xffffffffa80161a1                LMqos_LMP_Quality_of_Service
                0xffffffffa80161a5                _Send_HC_Link_Supervision_Timeout_Changed_Event
                0xffffffffa80161c1                _Send_HC_Max_Slots_Change_Event
                0xffffffffa80161dd                LMqos_Send_HC_Packet_Type_Changed_Event
                0xffffffffa8016215                LMqos_LMP_Not_Accepted
                0xffffffffa8016239                LMqos_LMP_Accepted
                0xffffffffa80162cd                LMqos_LMP_Max_Slot
                0xffffffffa8016325                LMqos_LMP_Quality_of_Service_Req
                0xffffffffa801634d                LMqos_LMP_Supervision_Timeout
                0xffffffffa80163ad                LMqos_LM_Write_Supervision_Timeout
                0xffffffffa8016451                LMqos_Adjust_Supervision_Timeout_On_Link
                0xffffffffa80164ad                LMqos_Send_LMP_Preferred_Rate
                0xffffffffa80164f9                LMqos_LM_Max_Slot_Req
                0xffffffffa8016529                LMqos_LMP_Max_Slot_Req
                0xffffffffa8016561                LMqos_Channel_Quality_Timeout
                0xffffffffa8016745                LMqos_LM_Change_Packet_Type
                0xffffffffa80169d9                LMscan_LM_Read_Supported_IAC
                0xffffffffa8016a0d                LMscan_Read_Scan_Activity
                0xffffffffa8016a3d                LMscan_Write_Inquiry_Scan_Type
                0xffffffffa8016a51                LMscan_Write_Page_Scan_Type
                0xffffffffa8016a65                LMscan_Sleep
                0xffffffffa8016b5d                LMscan_Inquiry_Scan_Complete
                0xffffffffa8016ba9                LMscan_Page_Scan_Complete
                0xffffffffa8016c11                LMscan_Update_SR_Mode
                0xffffffffa8016c4d                LMscan_Page_Scan_Incoming
                0xffffffffa8016cd9                LMscan_Inquiry_Scan_Start
                0xffffffffa8016dfd                LMscan_Page_Scan_Start
                0xffffffffa8016f1d                LMscan_Write_Scan_Enable
                0xffffffffa8016f81                LMscan_Write_Scan_Activity
                0xffffffffa8017041                LMscan_LM_Write_Supported_IAC
                0xffffffffa8017089                LMscan_Initialise
                0xffffffffa8017145                LMscoctr_Initialise
                0xffffffffa80171b9                LMscoctr_Get_Number_SCO_Connections
                0xffffffffa80171c5                LMscoctr_Get_Number_PCM_Connections
                0xffffffffa80171dd                LMscoctr_Assign_SCO_Parameters
                0xffffffffa80171fd                LMscoctr_Extract_SCO_Parameters_From_PDU
                0xffffffffa8017259                LMscoctr_Map_AirMode_LMP2HCI
                0xffffffffa8017275                LMscoctr_Map_AirMode_HCI2LMP
                0xffffffffa8017291                LMscoctr_Is_LM_Air_Mode_Supported
                0xffffffffa80172e5                LMscoctr_Get_Active_LM_SYN_Window
                0xffffffffa801732d                LMscoctr_Is_All_Bandwidth_Used_By_SCO
                0xffffffffa8017359                LMscoctr_Is_All_Bandwidth_Used_By_SYN
                0xffffffffa80173d1                LMscoctr_Find_SCO_By_Device_Index
                0xffffffffa80173ed                LMscoctr_Find_SCO_By_Connection_Handle
                0xffffffffa8017409                LMscoctr_Find_SCO_By_SCO_Handle
                0xffffffffa801742d                LMscoctr_Derive_LM_SCO_Packet_Type
                0xffffffffa8017459                LMscoctr_Get_SCO_Transitioning_Ref
                0xffffffffa8017471                LMscoctr_Find_SCO_Under_Negotiation
                0xffffffffa80174ad                LMscoctr_Allocate_Negotation_SCO_Link
                0xffffffffa8017539                LMscoctr_Free_Negotiation_SCO_Link
                0xffffffffa8017545                LMscoctr_Accept_And_Free_Negotiated_SCO_Link
                0xffffffffa801756d                LMscoctr_Convert_HCI_To_LM_SCO_Packet_Type
                0xffffffffa801758d                _LMscoctr_Derive_D_SCO
                0xffffffffa80175d1                LMscoctr_Derive_SCO_Parameters
                0xffffffffa801766d                LMscoctr_Map_eSCO_Pkt_Type_LMP2HCI
                0xffffffffa80176a9                LMscoctr_Extract_eSCO_Parameters_From_LMP_PDU
                0xffffffffa8017795                LMscoctr_Validate_eSCO_Features
                0xffffffffa8017829                LMscoctr_Validate_Local_eSCO_Features
                0xffffffffa8017845                LMscoctr_Validate_Remote_eSCO_Features
                0xffffffffa8017865                LMscoctr_IsValid_eSCO_Packet_Type
                0xffffffffa8017891                LMscoctr_Initial_Negotiate_Setting
                0xffffffffa80178b1                LMscoctr_Adjust_Negotiate_Setting
                0xffffffffa8017941                _LMscoctr_SetDEscoCalculatorBit
                0xffffffffa8017961                _LMscoctr_TestDEscoCalculatorBit
                0xffffffffa8017981                LMscoctr_Derive_D_eSCO_AtLeast
                0xffffffffa8017a51                LMscoctr_Get_Next_LMP_Parameter_Set
                0xffffffffa8017d8d                LMscoctr_Check_eSCO_Parameter
                0xffffffffa8017f19                LMscoctr_Get_Next_D_eSCO
                0xffffffffa8017f45                LMscoctr_Is_Bandwidth_Available_For_SCO_Packet_Types
                0xffffffffa8018015                LMscoctr_Derive_Tx_Dequeue_Length
                0xffffffffa8018069                LMscoctr_Set_D_eSCO_and_Timing_Flag
                0xffffffffa80180b5                LMscoctr_Validate_SYN_Piconet
                0xffffffffa80180f1                LMscoctr_Validate_Host_eSCO_Parameters
                0xffffffffa801818d                LMscoctr_IsValid_eSCO_Packet_Length
                0xffffffffa801822d                LMscoctr_RangeCheck_Peer_eSCO_Parameters
                0xffffffffa80182d9                LMscoctr_Validate_Peer_eSCO_Parameters
                0xffffffffa8018329                LMscoctr_Commit_to_New_Synchronous_Parameters
                0xffffffffa801840d                LMscoctr_Init_D_eSCO_Bitmap
                0xffffffffa80184b1                LMscoctr_Free
                0xffffffffa801855d                LMscoctr_Alloc
                0xffffffffa8018681                LMsec_core_Array_Xor
                0xffffffffa80186ad                LMsec_core_Init_SecAuthInfo
                0xffffffffa80186c1                _AgeRepeatAttemptsList
                0xffffffffa8018731                LMsec_core_Get_Broadcast_Key_Length
                0xffffffffa8018741                LMsec_core_Is_Broadcast_Key_Length_Possible
                0xffffffffa8018745                LMsec_core_Clean_On_Detach
                0xffffffffa8018769                LMsec_core_Simple_Pairing_Complete_2
                0xffffffffa80187fd                LMsec_core_Start_SSP_Stage2_2
                0xffffffffa8018865                LMsec_core_Start_SSP_Stage2
                0xffffffffa80188ad                LMsec_core_Init_UnitKey_Setup
                0xffffffffa80188e9                LMsec_core_Start_Simple_Pairing
                0xffffffffa8018af1                LMsec_core_TimeoutHandler
                0xffffffffa8018bf5                LMsec_core_Pause_Encryption_Complete
                0xffffffffa8018c65                LMsec_core_Set_Encryption_Complete
                0xffffffffa8018ce5                LMsec_core_Set_Encryption
                0xffffffffa8018d5d                LMsec_core_RecordAuthSuccess
                0xffffffffa8018db9                LMsec_core_RecordAuthFailure
                0xffffffffa8018e69                LMsec_core_Change_To_Semi_Permanent_Key
                0xffffffffa8018ea5                LMsec_core_PeerData_Tx_Go_Callback
                0xffffffffa8018eed                LMsec_core_PeerData_Tx_Stop_Callback
                0xffffffffa8018f41                LMsec_core_Stop_Encryption_Ack
                0xffffffffa8018f61                LMsec_core_Enable_Rx_Encryption
                0xffffffffa8018f99                LMsec_core_Init_Encryption
                0xffffffffa801901d                LMsec_core_Initialise
                0xffffffffa8019089                LMsec_core_Init_CombKey_Setup
                0xffffffffa80190f5                LMsec_core_Init_LinkKey_Negotiation
                0xffffffffa8019131                LMsec_core_Get_Link_Key
                0xffffffffa8019195                LMsec_core_Auth_Response
                0xffffffffa80191f5                LMsec_core_Auth_Challenge
                0xffffffffa8019289                LMsec_core_Change_To_Temporary_Key
                0xffffffffa8019301                LMsec_core_Auth_Complete
                0xffffffffa801948d                LMsec_core_Simple_Pairing_Complete
                0xffffffffa8019501                LMsec_core_Auth_Allowed
                0xffffffffa8019549                LMsec_core_Init_Authentication
                0xffffffffa8019619                LM_SecEng_Generate_Local_Key
                0xffffffffa801961d                LM_SecEng_Wait_Local_Key
                0xffffffffa80197dd                lm_sp_n192_convert_wnaf
                0xffffffffa8019895                _Safer_Plus_Encrypt
                0xffffffffa8019b11                _Keyed_Hash
                0xffffffffa8019c21                LM_SecEng_Generate_Key_E3
                0xffffffffa8019c39                LM_SecEng_Authenticate_E1
                0xffffffffa8019ca5                LM_SecEng_Generate_Key_E22
                0xffffffffa8019d5d                LM_SecEng_Generate_Key_E21
                0xffffffffa8019dd1                _HMAC_SHA_256_Finish
                0xffffffffa8019ed9                _HMAC_SHA_256_Init
                0xffffffffa8019fa1                _Reg_To_Byte_Array
                0xffffffffa8019fd9                LM_SecEng_Generate_Check
                0xffffffffa801a065                LM_SecEng_Generate_Link_Key
                0xffffffffa801a0ed                LM_SecEng_Generate_Commitment
                0xffffffffa801a145                LM_SecEng_Get_DHKey
                0xffffffffa801a17d                LM_SecEng_Set_Local_Key
                0xffffffffa801a4d1                lm_sp_p192_point_to_inf
                0xffffffffa801a529                lm_sp_p192_invert
                0xffffffffa801a5d5                lm_sp_n_one
                0xffffffffa801a6ad                LM_SecEng_Set_Peer_Key
                0xffffffffa801adb1                lm_sp_p192_dbl
                0xffffffffa801af89                lm_sp_p192_add
                0xffffffffa801b2e5                lm_sp_pre_compute_points
                0xffffffffa801b559                lm_sp_p192_point_jacobian_to_affine
                0xffffffffa801b5f9                lm_dhkey_compare
                0xffffffffa801b70d                lm_sp_p192_points_jacobian_to_affine
                0xffffffffa801b85d                lm_dhkey_calc_init
                0xffffffffa801b8ed                LM_Start_Calc_DHK
                0xffffffffa801b965                LM_SecEng_Generate_DHKey
                0xffffffffa801b9a9                _Update_Link_Key
                0xffffffffa801b9d9                _Stop_Encryption
                0xffffffffa801b9f5                _Generate_Encryption_Key
                0xffffffffa801ba99                _Start_Encryption
                0xffffffffa801bb01                _Complete_CombKey_Setup
                0xffffffffa801bb7d                LMsec_peer_LMP_OOB_Failed
                0xffffffffa801bb91                LMsec_peer_LMP_Passkey_Entry_Failed
                0xffffffffa801bba5                LMsec_peer_LMP_Number_Comparison_Failed
                0xffffffffa801bbb9                LMsec_peer_LMP_Keypress_Notification
                0xffffffffa801bbcd                LMsec_peer_LMP_IO_capability_Res
                0xffffffffa801bc51                LMsec_peer_LMP_PublicKey
                0xffffffffa801bd11                LMsec_peer_Send_LMP_Not_Accepted
                0xffffffffa801bd51                LMsec_peer_Send_LMP_Message
                0xffffffffa801bde1                LMsec_peer_LMP_OOB_Check
                0xffffffffa801be8d                LMsec_peer_LMP_Simple_Pairing_Confirm
                0xffffffffa801bf71                LMsec_peer_LMP_IO_capability_Req
                0xffffffffa801c065                LMsec_peer_LMP_Resume_Encryption_Req
                0xffffffffa801c099                LMsec_peer_Send_LMP_Accepted
                0xffffffffa801c0cd                LMsec_peer_LMP_DHKey_Check_2
                0xffffffffa801c219                LMsec_peer_LMP_DHKey_Check
                0xffffffffa801c2ad                LMsec_peer_LMP_Simple_Pairing_Number
                0xffffffffa801c469                LMsec_peer_LMP_Temp_Key
                0xffffffffa801c4d5                LMsec_peer_LMP_Use_Semi_Permanent_Key
                0xffffffffa801c531                LMsec_peer_LMP_Unit_Key
                0xffffffffa801c5f1                LMsec_peer_LMP_Comb_Key
                0xffffffffa801c74d                LMsec_peer_LMP_Temp_Rand
                0xffffffffa801c7c9                LMsec_peer_LMP_Pause_Encryption_Req
                0xffffffffa801c81d                LMsec_peer_LMP_Stop_Encryption_Req
                0xffffffffa801c8c5                LMsec_peer_LMP_Start_Encryption_Req
                0xffffffffa801c989                LMsec_peer_LMP_Not_Accepted
                0xffffffffa801cc25                LMsec_peer_LMP_Encryption_Mode_Req
                0xffffffffa801cd81                LMsec_peer_LMP_Encryption_Key_Size_Req
                0xffffffffa801ce31                LMsec_peer_LMP_Sres
                0xffffffffa801cf95                LMsec_peer_LMP_In_Rand
                0xffffffffa801d209                LMsec_peer_LMP_Au_Rand
                0xffffffffa801d3b1                LMsec_peer_LMP_Accepted
                0xffffffffa801d6ad                LMsec_upper_Send_HCI_Event
                0xffffffffa801d795                LMsec_upper_Send_Encryption_Change_Event
                0xffffffffa801d7a9                LMsec_upper_LM_Read_Local_OOB_Data
                0xffffffffa801d7ed                LMsec_upper_LM_Write_Simple_Pairing_Debug_Mode
                0xffffffffa801d805                LMsec_upper_LM_Send_Keypress_Notification
                0xffffffffa801d845                LMsec_upper_LM_User_Passkey_Request_Timeout
                0xffffffffa801d875                LMsec_upper_LM_Remote_OOB_Data_Request_Timeout
                0xffffffffa801d8a9                LMsec_upper_LM_User_Confirm_Request_Timeout
                0xffffffffa801d8d9                LMsec_upper_LM_Remote_OOB_Data_Request_Negative_Reply
                0xffffffffa801d93d                LMsec_upper_LM_IO_Capability_Request_Reply
                0xffffffffa801d9dd                LMsec_upper_LM_User_Passkey_Request_Negative_Reply
                0xffffffffa801da7d                LMsec_upper_LM_User_Confirm_Request_Negative_Reply
                0xffffffffa801db21                LMsec_upper_LM_IO_Capability_Request_Timeout
                0xffffffffa801db5d                LMsec_upper_LM_IO_Capability_Request_Negative_Reply
                0xffffffffa801dbd1                LMsec_upper_LM_Link_Key_Request_Timeout
                0xffffffffa801dc3d                LMsec_upper_LM_Link_Key_Request_Negative_Reply
                0xffffffffa801dd2d                LMsec_upper_LM_User_Passkey_Request_Reply
                0xffffffffa801de31                LMsec_upper_LM_Remote_OOB_Data_Request_Reply
                0xffffffffa801deb9                LMsec_upper_LM_User_Confirm_Request_Reply
                0xffffffffa801df59                LMsec_upper_LM_Refresh_Encryption_Key
                0xffffffffa801df9d                LMsec_upper_LM_Set_Connection_Encryption
                0xffffffffa801e021                LMsec_upper_LM_Pin_Code_Request_Reply
                0xffffffffa801e189                LMsec_upper_LM_Pin_Code_Request_Timeout
                0xffffffffa801e1d9                LMsec_upper_LM_Pin_Code_Request_Negative_Reply
                0xffffffffa801e261                LMsec_upper_LM_Master_Link_Key
                0xffffffffa801e3a1                LMsec_upper_LM_Link_Key_Request_Reply
                0xffffffffa801e541                LMsec_upper_LM_Create_New_Unit_Key
                0xffffffffa801e581                LMsec_upper_LM_Change_Connection_Link_Key
                0xffffffffa801e64d                LMsec_upper_LM_Authentication_Requested
                0xffffffffa801e6f1                LMtmr_Initialise
                0xffffffffa801e735                LMtmr_Reset_Timer
                0xffffffffa801e749                SYStmr_Handle_Expired_Timers
                0xffffffffa801e7d1                SYStmr_Handle_Expired_Timers_All
                0xffffffffa801e7e1                LMtmr_Set_Timer
                0xffffffffa801e7f9                LMutils_Set_Bd_Addr
                0xffffffffa801e809                LMutils_Bd_Addr_Match
                0xffffffffa801e859                LMutils_Array_Copy
                0xffffffffa801e871                LMutils_Get_Uint16
                0xffffffffa801e881                LMutils_Get_Uint24
                0xffffffffa801e895                LMutils_Get_Uint32
                0xffffffffa801e8b1                LMutils_Set_Uint16
                0xffffffffa801e8c1                LSLCacc_Initialise
                0xffffffffa801e925                BT_Start_rx_test_process
                0xffffffffa801ea99                Lslcacc_build_Tx_Test_burst_Start
                0xffffffffa801ebf5                BT_start_rx_test_end2
                0xffffffffa801ecb9                bt_rx_Test_process_packet2
                0xffffffffa801ee0d                bt_rx_Test_receive_hdr2
                0xffffffffa801ef1d                LSLCacc_Exit_Test
                0xffffffffa801efe5                lslc_acc_bbtest_pka2
                0xffffffffa801f0a9                bt_Assign_Frequency_Kernel
                0xffffffffa801f0dd                LSLCafh_Process_Baseband_Ack
                0xffffffffa801f0f9                LSLCafh_LM_Read_AFH_Channel_Map
                0xffffffffa801f135                LSLCafh_Count_1_Bits
                0xffffffffa801f161                LSLCafh_set_AFH
                0xffffffffa801f255                LSLCafh_Initialise
                0xffffffffa801f341                LSLCass_Initialise_Device_Channel_Assessment
                0xffffffffa801f491                LSLCass_Fade_Adjacent_Channels
                0xffffffffa801f53d                LSLCass_Disable_Channel
                0xffffffffa801f711                LSLCass_Process_Rx_RSSI_Channel
                0xffffffffa801f869                LSLCass_Process_No_Rx_Packet
                0xffffffffa801f989                LSLCass_Handle_Assessments
                0xffffffffa801f9c5                LSLCcls_Build_Channel_Classification
                0xffffffffa801fa25                LSLCcls_Build_Channel_Map
                0xffffffffa801fb19                LSLCcls_Record_Device_Channel_Map
                0xffffffffa801fb31                LSLCcls_Record_Slave_Channel_Classification
                0xffffffffa801fb55                LSLCcls_Initialise_Slave_Channel_Classification
                0xffffffffa801fb79                LSLCcls_Initialise
                0xffffffffa801fba5                LSLCclk_Initialise
                0xffffffffa801fba9                LSLCfreq_Initialise
                0xffffffffa801fbb9                LSLChop_Initialise
                0xffffffffa801fc11                _LSLChop_Execute_HSE_Non_Connection
                0xffffffffa801fcd5                LSLChop_Build_Frequency_Table
                0xffffffffa801fd59                _LSLChop_Execute_HSE_Reduced
                0xffffffffa801fd79                _LSLChop_Execute_HSE_Single_Connection
                0xffffffffa801fd8d                _LSLChop_Execute_HSE_Connection_23
                0xffffffffa801fee1                LSLChop_Execute_79_Hop_Kernel_Connection_Summation
                0xffffffffa8020029                _LSLChop_Execute_HSE_Connection_79
                0xffffffffa8020059                LSLCirq_Initialise
                0xffffffffa8020085                LSLCslot_Initialise
                0xffffffffa80200c5                LSLCslot_eSCO_tx_3slot_packet_expected
                0xffffffffa80200d1                LSLCslot_eSCO_rx_3slot_packet_expected
                0xffffffffa80200dd                LSLCstat_Reset_Monitors
                0xffffffffa80200f9                rdabt_mgr_get_local_feature
                0xffffffffa8020105                rdabt_mgr_get_dut_mode
                0xffffffffa8020115                MGR_GetState
                0xffffffffa8020125                rdabt_mgr_setState
                0xffffffffa8020139                rdabt_mgr_handle_common_event
                0xffffffffa80201e5                mgr_write_pagescan_parameters
                0xffffffffa8020269                rdabt_manager_msg_dispatch
                0xffffffffa80206ed                rdabt_manager_layer_ctrl
                0xffffffffa8020779                MGR_BaseBand_TestEnd
                0xffffffffa802078d                MGR_BaseBand_RXTest
                0xffffffffa80207c5                MGR_BaseBand_TXTest
                0xffffffffa80207f9                MGR_EnableDUT
                0xffffffffa8020831                MGR_WriteLocalDeviceAddress
                0xffffffffa8020849                MGR_ChangeLocalName
                0xffffffffa8020931                MGR_SetConnectableMode
                0xffffffffa8020975                MGR_SetDiscoverableMode
                0xffffffffa80209b9                MGR_WriteLocalDeviceCOD
                0xffffffffa80209d9                rdabt_mgr_addDeviceEntry
                0xffffffffa8020aa9                rdabt_mgr_find_deviceEntryByAddress
                0xffffffffa8020b11                rdabt_mgr_return_deviceEntryByAddress
                0xffffffffa8020b61                rdabt_shutdown_devicelist
                0xffffffffa8020b95                rdabt_mgr_initialise_devicelist
                0xffffffffa8020bcd                MGR_RemoveDeviceRecord
                0xffffffffa8020c65                rdabt_mgr_get_deviceEntryByHandle
                0xffffffffa8020cd1                rdabt_mgr_get_addressByHandle
                0xffffffffa8020d01                MGR_exit_all_sniff
                0xffffffffa8020d65                MGR_SetVoiceSetting_Config
                0xffffffffa8020d99                alloc_acl_link
                0xffffffffa8020e41                rdabt_mgr_set_link_timeout
                0xffffffffa8020e95                rdabt_mgr_updateLinkSupervisionTimeout
                0xffffffffa8020f1d                rdabt_update_sniff_timer
                0xffffffffa8021025                rdabt_mgr_handle_HCI_evMODECHANGE
                0xffffffffa8021131                rdabt_mgr_handle_link_event
                0xffffffffa8021da5                rdabt_mgr_createACL
                0xffffffffa8021f1d                rdabt_mgr_read_raw_rssi
                0xffffffffa8021f69                MGR_ConnectAcceptRsp
                0xffffffffa8021fb9                rdabt_mgr_updateFlushTimeout
                0xffffffffa802205d                MGR_ReleaseSynchronous
                0xffffffffa80220c5                rdabt_mgr_releaseACL
                0xffffffffa802214d                MGR_releaseACL
                0xffffffffa8022165                rdabt_mgr_releaseAllACL
                0xffffffffa8022231                MGR_SetupSynchronous
                0xffffffffa80222d5                rdabt_link_sniff_timeout
                0xffffffffa802244d                rdabt_mgr_free_all_linklist
                0xffffffffa8022481                rdabt_mgr_initialise_linklist
                0xffffffffa80224d1                MGR_SetPairingMode
                0xffffffffa80224e9                MGR_RegisterServiceSecurityLevel
                0xffffffffa80226ed                rdabt_mgr_handle_security_hciEvent
                0xffffffffa8022f3d                MGR_OOBDataResponse
                0xffffffffa8022f59                rdabt_write_link_policy_handle
                0xffffffffa8022f7d                MGR_ConfirmResponse
                0xffffffffa8022fd1                MGR_PasskeyResponse
                0xffffffffa8023025                MGR_PINResponse
                0xffffffffa802309d                MGR_LinkKeyResponse
                0xffffffffa8023369                MGR_IncomingAccessRequest
                0xffffffffa80233ed                MGR_OutgoingAccessRequest
                0xffffffffa8023481                MGR_InitBonding
                0xffffffffa8023579                MGR_PrintBDAddress
                0xffffffffa80235d5                rdabt_mgr_hci2bt_error
                0xffffffffa80235f1                rdabt_mgr_printBDAddress
                0xffffffffa802360d                rdabt_mgr_printLargeNumber
                0xffffffffa802367d                rdabt_mgr_copyBDAddress
                0xffffffffa802368d                rdabt_op_get_list_length
                0xffffffffa802372d                rdabt_op_read_uuid
                0xffffffffa8023791                rdabt_OBEX_CLI_layer_ctrl
                0xffffffffa8023795                rdabt_goep_connect_req_reply
                0xffffffffa8023841                rdabt_goep_TransportConnect_RF_reply
                0xffffffffa8023a0d                OBEX_FindObjectPushServer
                0xffffffffa8023aad                OBEX_ConnectRequest
                0xffffffffa8023b49                rdabt_obex_op_client_search_callback2
                0xffffffffa8023d91                rdabt_obex_op_client_search_callback
                0xffffffffa8023e0d                rdabt_OBEX_CLI_msg_dispatch
                0xffffffffa8023fdd                OBEX_AuthCheck
                0xffffffffa802405d                OBEX_AuthResponse
                0xffffffffa80240dd                OBEX_AuthRequest
                0xffffffffa8024141                rdabt_obex_allocate_tid
                0xffffffffa8024165                rdabt_obex_clean_tid
                0xffffffffa8024169                rdabt_obex_client_l2cap_data_ind
                0xffffffffa8024245                rdabt_obex_tal_rfcomm_connect_port
                0xffffffffa802427d                rdabt_obex_tal_rfcomm_client_data
                0xffffffffa802441d                rdabt_obex_tal_rfcomm_flow_info_ind
                0xffffffffa80244c5                rdabt_obex_l2cap_transfer
                0xffffffffa8024539                rdabt_obex_retransmit_handler
                0xffffffffa80247fd                rdabt_obex_transport_tx
                0xffffffffa80248d9                rdabt_obex_if_need_send_to_app
                0xffffffffa8024a31                rdabt_obex_from_transport
                0xffffffffa8024bdd                OPP_SetDiscovery
                0xffffffffa8024bf1                rdabt_obex_l2cap_disconnect_ind
                0xffffffffa8024d45                rdabt_obex_client_l2cap_connect_conf
                0xffffffffa8024dfd                rdabt_obex_tal_rfcomm_disconnect_ind
                0xffffffffa8024f95                rdabt_obex_tal_rfcomm_connect_ind
                0xffffffffa80251f1                rdabt_obex_tal_rfcomm_connect_conf
                0xffffffffa8025375                rdabt_obex_tal_remove_transport
                0xffffffffa80253dd                OBEX_ExtractHeaders
                0xffffffffa8025501                OBEX_FreeWriteBuffer
                0xffffffffa8025515                OBEX_GetWriteBuffer
                0xffffffffa8025559                OBEX_Create4ByteHeader
                0xffffffffa80255b1                OBEX_CreateStringHeader
                0xffffffffa802568d                OBEX_CreateSequenceHeader
                0xffffffffa802574d                rdabt_get_a2dp_unconnected_device
                0xffffffffa8025779                rdabt_get_a2dp_active_device
                0xffffffffa80257a5                rdabt_a2dp_send_sep_reconfig_cnf_cb
                0xffffffffa80257a9                rdabt_a2dp_media_connect_ind_cb
                0xffffffffa80257ad                rdabt_a2dp_media_disconnect_ind_cb
                0xffffffffa80257b1                rdabt_a2dp_send_sep_sec_control_cnf_cb
                0xffffffffa80257b5                rdabt_a2dp_send_sep_get_all_cap_cnf_cb
                0xffffffffa80257b9                rdabt_a2dp_send_sep_delay_report_cnf_cb
                0xffffffffa80257bd                rdabt_a2dp_send_sep_sec_control_ind_cb
                0xffffffffa80257c1                rdabt_a2dp_send_sep_delay_report_ind_cb
                0xffffffffa80257c5                rdabt_a2dp_msg_handle
                0xffffffffa80257f9                rdabt_a2dp_find_need_play_device
                0xffffffffa8025825                rdabt_a2dp_check_sbc_active
                0xffffffffa8025875                rdabt_get_a2dp_idle_device
                0xffffffffa80258c9                rdabt_get_a2dp_device_info
                0xffffffffa802592d                rdabt_a2dp_drop_sbc
                0xffffffffa8025979                rdabt_a2dp_resume_sbc
                0xffffffffa80259c5                rdabt_a2dp_check_ifNeed_resume
                0xffffffffa8025a21                rdabt_media_function
                0xffffffffa8025a61                rdabt_get_soundbar_clk_role
                0xffffffffa8025a81                rdabt_a2dp_send_sep_pause_cnf_cb
                0xffffffffa8025abd                rdabt_a2dp_return_adp_info
                0xffffffffa8025add                rdabt_a2dp_read_syncclk_and_start
                0xffffffffa8025b69                rdabt_a2dp_set_audio_sync_clk
                0xffffffffa8025b79                rdabt_a2dp_free
                0xffffffffa8025ba5                rdabt_free_a2dp_device_info
                0xffffffffa8025bf5                rdabt_a2dp_init
                0xffffffffa8025c49                rdabt_a2dp_sep_get_all_cap_ind_cb
                0xffffffffa8025c5d                rdabt_a2dp_media_disconnect_cnf_cb
                0xffffffffa8025cb9                rdabt_a2dp_media_connect_cnf_cb
                0xffffffffa8025d1d                rdabt_a2dp_send_sep_abort_ind_cb
                0xffffffffa8025d81                rdabt_a2dp_send_sep_close_ind_cb
                0xffffffffa8025de5                rdabt_a2dp_sep_reconfig_ind_cb
                0xffffffffa8025e21                rdabt_a2dp_send_sep_pause_ind_cb
                0xffffffffa8025fe9                rdabt_a2dp_signal_disconnect_ind_cb
                0xffffffffa80260a1                rdabt_a2dp_send_sep_start_cnf_cb
                0xffffffffa80260f9                rdabt_a2dp_signal_disconnect_cnf_cb
                0xffffffffa80261b1                rdabt_a2dp_send_sep_start_ind_cb
                0xffffffffa80263f5                rdabt_a2dp_send_sep_open_ind_cb
                0xffffffffa8026451                rdabt_a2dp_send_sep_set_config_ind_cb
                0xffffffffa80264b5                rdabt_a2dp_send_sep_get_capabilities_ind_cb
                0xffffffffa80264c9                rdabt_a2dp_send_sep_discover_ind_cb
                0xffffffffa80264d9                rdabt_a2dp_media_data_ind_cb
                0xffffffffa8026611                rdabt_a2dp_signal_connect_ind_cb
                0xffffffffa8026725                rdabt_a2dp_send_sep_abort_cnf_cb
                0xffffffffa8026779                rdabt_a2dp_send_sep_close_cnf_cb
                0xffffffffa80267c5                rdabt_a2dp_send_sep_open_cnf_cb
                0xffffffffa8026831                rdabt_a2dp_connect_media
                0xffffffffa8026855                rdabt_avrcp_timer_handle
                0xffffffffa802691d                rdabt_a2dp_send_sep_set_config_cnf_cb
                0xffffffffa802699d                rdabt_a2dp_send_sep_get_capabilities_cnf_cb
                0xffffffffa8026acd                rdabt_a2dp_send_sep_discover_cnf_cb
                0xffffffffa8026b61                rdabt_a2dp_signal_connect_cnf_cb
                0xffffffffa8026c5d                rdabt_a2dp_register_sink_sdp
                0xffffffffa8026c95                rdabt_a2dp_disconnect_all
                0xffffffffa8026cb5                rdabt_a2dp_disconnect_all_handle
                0xffffffffa8026cf5                rdabt_a2dp_disconnect
                0xffffffffa8026d19                rdabt_a2dp_send_suspend
                0xffffffffa8026d41                rdabt_a2dp_connect
                0xffffffffa8026da1                rdabt_get_avrcp_adp_state
                0xffffffffa8026dc9                rdabt_get_avrcp_idle_device
                0xffffffffa8026df5                rdabt_get_avrcp_unconnected_device
                0xffffffffa8026e21                rdabt_avrcp_active_cnf_cb
                0xffffffffa8026e25                rdabt_avrcp_deactive_cnf_cb
                0xffffffffa8026e29                rdabt_avrcp_cmd_frame_cnf_cb
                0xffffffffa8026e2d                rdabt_avrcp_browsing_cmd_ind_cb
                0xffffffffa8026e31                rdabt_avrcp_msg_handle
                0xffffffffa8026e65                rdabt_check_avrcp_active_device
                0xffffffffa8026eb5                rdabt_free_avrcp_device_info
                0xffffffffa8026f09                rdabt_get_avrcp_device_info
                0xffffffffa8026f69                rdabt_avrcp_send_key
                0xffffffffa8026ff1                rdabt_avrcp_register_target_sdp
                0xffffffffa8027001                rdabt_avrcp_register_controller_sdp
                0xffffffffa8027011                rdabt_avrcp_finish_vendor_data
                0xffffffffa8027025                rdabt_avrcp_free
                0xffffffffa8027051                rdabt_avrcp_init
                0xffffffffa80270a5                rdabt_avrcp_browsing_data_ind_cb
                0xffffffffa8027119                rdabt_avrcp_player_status_ind_cb
                0xffffffffa8027135                rdabt_avrcp_disconnect_ind_cb
                0xffffffffa80271cd                rdabt_avrcp_disconnect_cnf_cb
                0xffffffffa8027269                rdabt_avrcp_return_adp_info
                0xffffffffa8027289                rdabt_avrcp_send_stop_timerout
                0xffffffffa80272d1                rdabt_avrcp_vendor_data_ind_cb
                0xffffffffa80276b9                rdabt_avrcp_cmd_frame_ind_cb
                0xffffffffa80276ed                rdabt_avrcp_disconnect_all_handle
                0xffffffffa8027755                rdabt_avrcp_disconnect
                0xffffffffa8027779                rdabt_avrcp_connect_ind_cb
                0xffffffffa80278ed                rdabt_avrcp_connect_cnf_cb
                0xffffffffa80279dd                rdabt_avrcp_notification_ind_cb
                0xffffffffa8027f81                rdabt_avrcp_disconnect_all
                0xffffffffa8027fa1                rdabt_avrcp_connect
                0xffffffffa8027ff5                rdabt_avrcp_sync_volume
                0xffffffffa8028009                rdabt_change_local_pincode
                0xffffffffa8028025                rdabt_mode_switch_timer
                0xffffffffa8028039                rdabt_le_addr_init
                0xffffffffa8028091                rdabt_active_init
                0xffffffffa80280d5                rdabt_change_local_name
                0xffffffffa80280f9                rdabt_set_visiable
                0xffffffffa8028139                rdabt_mode_switch
                0xffffffffa8028169                rdabt_common_init
                0xffffffffa80281ed                rdabt_free_buf
                0xffffffffa802821d                rdabt_get_hfp_adp_state
                0xffffffffa8028245                rdabt_get_hfp_idle_device
                0xffffffffa802826d                rdabt_get_hfp_unconnected_device
                0xffffffffa8028295                rdabt_hfp_msg_handle
                0xffffffffa80282c9                rdabt_hfp_check_call_active
                0xffffffffa80282f5                rdabt_hfp_send_NREC
                0xffffffffa802830d                rdabt_hfp_free
                0xffffffffa8028339                rdabt_hfp_init
                0xffffffffa802837d                rdabt_hfp_register_hf_sdp
                0xffffffffa802838d                rdabt_hfp_data_ind_cb
                0xffffffffa8028405                rdabt_hfp_ring_ind_cb
                0xffffffffa8028421                rdabt_hfp_gain_ind_cb
                0xffffffffa802843d                rdabt_hfp_pb_ind_cb
                0xffffffffa8028455                rdabt_hfp_return_adp_info
                0xffffffffa8028475                rdabt_get_hfp_device_info
                0xffffffffa80284bd                rdabt_hfp_call_clcc_cnf_cb
                0xffffffffa8028575                rdabt_hfp_disconnect_ind_cb
                0xffffffffa80285fd                rdabt_hfp_call_status_ind_cb
                0xffffffffa8028891                rdabt_hfp_get_clcc_timer
                0xffffffffa80288bd                rdabt_hfp_connect_ind_cb
                0xffffffffa80289d9                rdabt_hfp_disconnect_all_handle
                0xffffffffa8028a21                rdabt_disconnect_hfp
                0xffffffffa8028a45                rdabt_hfp_update_indicator
                0xffffffffa8028a55                rdabt_hfp_connect_req_cb
                0xffffffffa8028ae5                rdabt_hfp_send_speaker_gain
                0xffffffffa8028af9                rdabt_hfp_send_raw_data
                0xffffffffa8028b31                rdabt_hfp_disconnect_all
                0xffffffffa8028b51                rdabt_hfp_get_pb_data_req
                0xffffffffa8028b65                rdabt_hfp_pb_set_path_ind_cb
                0xffffffffa8028b7d                rdabt_hfp_pb_set_code_ind_cb
                0xffffffffa8028b95                rdabt_hfp_pb_get_code_ind_cb
                0xffffffffa8028bb1                rdabt_hfp_get_pbap_req
                0xffffffffa8028bd1                rdabt_hfp_terminal_call_req
                0xffffffffa8028be5                rdabt_hfp_call_req
                0xffffffffa8028c2d                rdabt_hfp_call_answer_req
                0xffffffffa8028c41                rdabt_connect_hfp
                0xffffffffa8028cd1                rdabt_mgr_get_remote_name_cnf_cb
                0xffffffffa8028cd5                rdabt_mgr_discovery_ind_cb
                0xffffffffa8028cd9                rdabt_mgr_inquiry_device
                0xffffffffa8028cdd                rdabt_mgr_inquiry_cancel
                0xffffffffa8028ce1                rdabt_mgr_discovery_cnf_cb
                0xffffffffa8028ce5                rdabt_mgr_sco_data_ind_cb
                0xffffffffa8028ce9                rdabt_mgr_register_cnf_cb
                0xffffffffa8028ced                rdabt_manager_msg_handle
                0xffffffffa8028d21                rdabt_get_remote_name_req
                0xffffffffa8028d29                rdabt_get_rssi_by_addr
                0xffffffffa8028dd1                rdabt_remove_adp_device
                0xffffffffa8028df1                rdabt_removedevice_by_addr
                0xffffffffa8028e4d                rdabt_mgr_clean_linkkey_cb
                0xffffffffa8028e75                rdabt_mgr_free
                0xffffffffa8028ea1                rdabt_mgr_init
                0xffffffffa8028f65                rdabt_add_device
                0xffffffffa8028fb1                rdabt_mgr_sco_disconnect_ind_cb
                0xffffffffa8029009                rdabt_mgr_bonding_cnf_cb
                0xffffffffa802905d                rdabt_mgr_acl_disconnect_ind_cb
                0xffffffffa80290d5                rdabt_mgr_return_adp_info
                0xffffffffa80290f5                rdabt_mgr_get_rssi_cnf_cb
                0xffffffffa802910d                rdabt_mgr_passkey_ind_cb
                0xffffffffa8029129                rdabt_mgr_confirm_ind_cb
                0xffffffffa8029141                rdabt_mgr_oob_data_ind_cb
                0xffffffffa802915d                rdabt_mgr_link_key_ind_cb
                0xffffffffa8029199                rdabt_mgr_pin_code_ind_cb
                0xffffffffa80291c9                rdabt_mgr_acl_connect_cnf_cb
                0xffffffffa802930d                rdabt_mgr_acl_connect_ind_cb
                0xffffffffa802946d                rdabt_mgr_sco_disconnect
                0xffffffffa8029481                rdabt_mgr_sco_connect_ind_cb
                0xffffffffa802954d                rdabt_mgr_sco_connect
                0xffffffffa8029561                rdabt_mgr_test
                0xffffffffa8029571                rdabt_mgr_mode_change_ind_cb
                0xffffffffa802961d                LogLayer_Encode
                0xffffffffa8029645                pDebugDumpFuncEX
                0xffffffffa8029649                pDebugDumpFunc
                0xffffffffa8029665                rdabt_send_notify
                0xffffffffa8029669                rdabt_vprintf
                0xffffffffa8029715                RDA_Debug_Print
                0xffffffffa8029765                RDABT_Exit_CriticalSection
                0xffffffffa8029775                RDABT_Enter_CriticalSection
                0xffffffffa8029789                rdabt_pbap_init
                0xffffffffa802978d                rdabt_pbap_msg_handle
                0xffffffffa80297a9                rdabt_pbap_disconnect
                0xffffffffa80297c5                rdabt_obex_disconnect_timeout
                0xffffffffa80297f5                rdabt_pbap_free
                0xffffffffa8029821                rdabt_obex_download_timeout
                0xffffffffa802984d                rdabt_pbap_get_data
                0xffffffffa80298a5                rdabt_pbap_get_history_cnf
                0xffffffffa8029955                rdabt_pbap_cli_rf_data_ind_cb
                0xffffffffa8029cb1                rdabt_pbap_history_download
                0xffffffffa8029d15                rdabt_pbap_phonebook_download
                0xffffffffa8029d75                rdabt_pbap_download
                0xffffffffa8029df9                rdabt_rfcomm_check_channel_state
                0xffffffffa8029e1d                rdabt_rfcomm_l2cap_inst_cmp
                0xffffffffa8029e29                rdabt_rfcomm_l2cap_cid_cmp
                0xffffffffa8029e35                rdabt_rfcomm_schan_cmp
                0xffffffffa8029e45                rdabt_rfcomm_remove_all_servers
                0xffffffffa8029e69                rdabt_rfcomm_remove_all_l2cap_inst
                0xffffffffa8029e8d                rdabt_rfcomm_core_shutdown
                0xffffffffa8029ea5                rdabt_rfcomm_remove_all_server_helper
                0xffffffffa8029eb9                rdabt_rfcomm_lookup_server_inst_by_schan
                0xffffffffa8029ee1                rdabt_rfcomm_lookup_l2cap_inst_by_bd_addr
                0xffffffffa8029f09                rdabt_rfcomm_lookup_l2cap_inst_by_cid
                0xffffffffa8029f31                rdabt_rfcomm_validate_and_lock_l2cap_inst_by_ptr
                0xffffffffa8029f59                rdabt_rfcomm_l2cap_remove_all_inst_helper
                0xffffffffa8029f81                rdabt_rfcomm_remove_l2cap_inst
                0xffffffffa8029fd9                rdabt_rfcomm_l2cap_bdaddr_cmp
                0xffffffffa802a009                rdabt_rfcomm_add_l2cap_inst
                0xffffffffa802a029                rdabt_rfcomm_core_init
                0xffffffffa802a051                rdabt_rfcomm_l2cap_connect_ind
                0xffffffffa802a0a9                rdabt_rfcomm_msg_dispatch
                0xffffffffa802a17d                rdabt_rfcomm_layer_ctrl
                0xffffffffa802a1dd                rdabt_rfcomm_dlc_incoming_sec_callback
                0xffffffffa802a25d                rdabt_rfcomm_dlc_do_event
                0xffffffffa802a2a5                rdabt_rfcomm_incoming_servicelevel_sec_callback
                0xffffffffa802a2bd                rdabt_rfcomm_ack_timeout_cb
                0xffffffffa802ac89                rdabt_rfcomm_dlc_init
                0xffffffffa802aced                rdabt_rfcomm_entity_remove_all_pending_conns
                0xffffffffa802ad11                rdabt_rfcomm_entity_shutdown
                0xffffffffa802ad2d                rdabt_rfcomm_entity_remove_all_pending_conns_helper
                0xffffffffa802ad59                rdabt_rfcomm_entity_remove_all_pending_channels_helper
                0xffffffffa802aded                rdabt_rfcomm_entity_rfstart_conf_cb
                0xffffffffa802aeb9                rdabt_rfcomm_open_multiplexer
                0xffffffffa802af09                rdabt_rfcomm_entity_connect_port
                0xffffffffa802b079                rdabt_rfcomm_entity_rfstart_ind_cb
                0xffffffffa802b0a1                rdabt_rfcomm_entity_init
                0xffffffffa802b0e1                rdabt_rfcomm_create_sabm
                0xffffffffa802b151                rdabt_rfcomm_create_ua
                0xffffffffa802b1c1                rdabt_rfcomm_create_dm
                0xffffffffa802b231                rdabt_rfcomm_create_disc
                0xffffffffa802b2a1                rdabt_rfcomm_rx_fcs
                0xffffffffa802b309                rdabt_rfcomm_destroy_uih
                0xffffffffa802b33d                rdabt_rfcomm_create_uih_credit
                0xffffffffa802b3fd                rdabt_rfcomm_create_uih
                0xffffffffa802b4bd                rdabt_rfcomm_l2cap_next_state
                0xffffffffa802b4c1                rdabt_rfcomm_l2cap_dispatch_data
                0xffffffffa802b559                rdabt_rfcomm_l2cap_do_event
                0xffffffffa802b5a1                rdabt_rfcomm_l2cap_process_data
                0xffffffffa802b6b9                rdabt_rfcomm_l2cap_wait_dis_dlc0_timeout
                0xffffffffa802b9a1                rdabt_rfcomm_dlc_dlci_cmp_helper
                0xffffffffa802b9b1                rdabt_rfcomm_free_dlc_instance
                0xffffffffa802b9c5                rdabt_rfcomm_remove_all_dlc_instance
                0xffffffffa802ba11                rdabt_rfcomm_dlc_remove_all_helper
                0xffffffffa802ba55                rdabt_rfcomm_remove_dlc_instance
                0xffffffffa802bac5                rdabt_rfcomm_lookup_dlci_instance_and_lock
                0xffffffffa802bae5                rdabt_rfcomm_lookup_dlci_instance
                0xffffffffa802bb05                rdabt_rfcomm_reg_dlc_instance
                0xffffffffa802bb29                rdabt_rfcomm_l2cap_connect_configured_cfm_cb
                0xffffffffa802bb95                rdabt_rfcomm_l2cap_disc_cfm_cb
                0xffffffffa802bbd9                rdabt_rfcomm_l2cap_disc_ind_cb
                0xffffffffa802bc31                rdabt_rfcomm_l2cap_data_ind_cb
                0xffffffffa802bc65                rdabt_rfcomm_l2cap_init
                0xffffffffa802bd0d                RDABT_RFCOMM_UE_Allocate_Server_Channel
                0xffffffffa802bd55                RDABT_RFCOMM_UE_Deallocate_Server_Channel
                0xffffffffa802bd7d                RDABT_RFCOMM_UE_Get_Channel_State
                0xffffffffa802bd9d                RDABT_RFCOMM_UE_register_rfstart_ind_cb
                0xffffffffa802bdad                rdabt_rfcomm_dlci0_lock_and_transmit_cmesg
                0xffffffffa802bde1                RDABT_RFCOMM_UE_Get_L2CAP_CID_From_Multiplexer
                0xffffffffa802be01                RDABT_RFCOMM_UE_Parneg_Credit_Resp
                0xffffffffa802be6d                __rdabt_rfcomm_ue_Parneg_Credit_Req
                0xffffffffa802bef5                RDABT_RFCOMM_UE_Parneg_Resp
                0xffffffffa802bf61                __rdabt_rfcomm_ue_Parneg_Req
                0xffffffffa802bfe1                RDABT_RFCOMM_UE_Get_Multiplexer_State
                0xffffffffa802c035                RDABT_RFCOMM_UE_Linestatus_Req
                0xffffffffa802c0bd                RDABT_RFCOMM_UE_Control_Req
                0xffffffffa802c141                RDABT_RFCOMM_UE_Portneg_Resp
                0xffffffffa802c1a9                RDABT_RFCOMM_UE_Data_Req
                0xffffffffa802c21d                RDABT_RFCOMM_UE_DLC_Rel_Req
                0xffffffffa802c265                RDABT_RFCOMM_UE_Start_Resp
                0xffffffffa802c2c5                RDABT_RFCOMM_UE_DLC_Estab_Req
                0xffffffffa802c375                RDABT_RFCOMM_UE_DLC_Estab_Resp
                0xffffffffa802c3f9                RDABT_RFCOMM_UE_Start_Req
                0xffffffffa802c46d                RDABT_RFCOMM_UE_Register_Server
                0xffffffffa802c4fd                rdabt_sdp_l2cap_disconnect_cfm_cb
                0xffffffffa802c549                rdabt_sdp_l2cap_disconnect_ind_cb
                0xffffffffa802c5ad                rdabt_sdp_l2cap_connect_configured_cfm_cb
                0xffffffffa802c641                rdabt_sdp_l2cap_data_ind_cb
                0xffffffffa802c739                rdabt_sdp_l2cap_connect_ind_cb
                0xffffffffa802c79d                rdabt_sdp_l2cap_connect_channel
                0xffffffffa802c7e5                rdabt_sdp_add_service
                0xffffffffa802c80d                rdabt_sdp_query
                0xffffffffa802c84d                rdabt_sdp_valid_record
                0xffffffffa802c871                rdabt_sdp_traverse_list
                0xffffffffa802c985                rdabt_sdp_service_search
                0xffffffffa802ca99                rdabt_sdp_read16
                0xffffffffa802caa9                rdabt_sdp_read32
                0xffffffffa802cac5                rdabt_sdp_write16
                0xffffffffa802cad5                rdabt_sdp_write32
                0xffffffffa802cae9                rdabt_sdp_copy
                0xffffffffa802cb21                rdabt_sdp_transfer_data
                0xffffffffa802cb45                rdabt_sdp_allocate_tx_buffer
                0xffffffffa802cb89                SDP_RegisterPSM
                0xffffffffa802cba9                rdabt_sdp_attribute_retrieve
                0xffffffffa802cda1                rdabt_sdp_uuid_check
                0xffffffffa802ced1                rdabt_sdp_attribute_check
                0xffffffffa802cfe9                rdabt_sdp_service_attribute_search_decode
                0xffffffffa802d2a9                rdabt_sdp_attribute_search_decode
                0xffffffffa802d475                rdabt_sdp_service_search_decode
                0xffffffffa802d5d5                rdabt_sdp_request_dispatcher
                0xffffffffa802d661                rdabt_sdp_service_attribute_response_decode
                0xffffffffa802d6d5                rdabt_sdp_attribute_response_decode
                0xffffffffa802d749                rdabt_sdp_service_response_decode
                0xffffffffa802d7cd                rdabt_sdp_error_decode
                0xffffffffa802d8a5                rdabt_sdp_response_dispatcher
                0xffffffffa802d90d                rdabt_sdp_generate_attrib_response
                0xffffffffa802d97d                rdabt_sdp_generate_service_attrib_response
                0xffffffffa802d9a1                rdabt_sdp_data_element_converter
                0xffffffffa802dced                rdabt_sdp_generate_search_response
                0xffffffffa802dd95                rdabt_sdp_generate_error_response
                0xffffffffa802de05                rdabt_sdp_srv_msg_dispatch
                0xffffffffa802de95                rdabt_sdp_srv_layer_ctrl
                0xffffffffa802dee9                rdabt_sdp_add_primitive_task
                0xffffffffa802df2d                rdabt_sdp_free_primitive_task
                0xffffffffa802df8d                rdabt_sdp_finish_primitive_task
                0xffffffffa802e02d                rdabt_sdp_find_services_attributes
                0xffffffffa802e1b1                rdabt_sdp_w4_browse_connections
                0xffffffffa802e27d                rdabt_sdp_w4_service_attributes
                0xffffffffa802e2fd                rdabt_sdp_timer_handler
                0xffffffffa802e335                get_list_length
                0xffffffffa802e3f1                read_uuid
                0xffffffffa802e445                SDP_ServiceResultParse
                0xffffffffa802e7cd                rdabt_sdp_cli_msg_dispatch
                0xffffffffa802e875                rdabt_sdp_cli_layer_ctrl
                0xffffffffa802e899                SDP_FreeResults
                0xffffffffa802e8ed                SDP_TerminatePrimitive
                0xffffffffa802eaf5                SDP_ServiceBrowse
                0xffffffffa802ebd9                SPP_rfcommFlowCtrl_Flag
                0xffffffffa802ebf1                SPP_Send_Data
                0xffffffffa802ed19                rdabt_stack_ent_dlc_linestat_cb
                0xffffffffa802ed29                rdabt_rfcomm_se_remove_all_stack_entity
                0xffffffffa802ed4d                rdabt_rfcomm_se_remove_all_stack_entity_helper
                0xffffffffa802ed61                rdabt_rfcomm_se_remove_stack_entity_by_portnum
                0xffffffffa802ed8d                rdabt_rfcomm_se_remove_stack_entity_by_addr_and_dlci
                0xffffffffa802ee25                rdabt_rfcomm_se_lookup_stack_entity_by_addr_and_dlci
                0xffffffffa802ee61                rdabt_rfcomm_se_lookup_stack_entity_by_portnum
                0xffffffffa802ee91                rdabt_rfcomm_se_add_stack_entity
                0xffffffffa802eea9                rdabt_stack_ent_dlc_rel_ind_cb
                0xffffffffa802ef8d                rdabt_stack_ent_dlc_credit_flow_cb
                0xffffffffa802f00d                rdabt_stack_ent_dlc_control_cb
                0xffffffffa802f0a5                rdabt_stack_ent_dlc_flow_ind_cb
                0xffffffffa802f135                rdabt_stack_ent_dlc_paramneg_cb
                0xffffffffa802f25d                rdabt_stack_ent_dlc_portneg_cb
                0xffffffffa802f4ad                rdabt_rfcomm_init_se_struct
                0xffffffffa802f4fd                rdabt_stack_ent_dlc_data_ind_cb
                0xffffffffa802f581                rdabt_stack_ent_dlc_estab_conf_cb
                0xffffffffa802f665                rdabt_stack_ent_dlc_estab_ind_cb
                0xffffffffa802f7d5                RSE_GetCIDFromConnection
                0xffffffffa802f811                RSE_FreeWriteBuffer
                0xffffffffa802f821                RSE_GetWriteBuffer
                0xffffffffa802f845                RSE_SrvConnectResponse
                0xffffffffa802f8cd                RSE_Linestatus_Req
                0xffffffffa802f905                RSE_Write
                0xffffffffa802f955                RSE_CliDisconnectPort
                0xffffffffa802f9a1                RSE_SrvDisconnectPort
                0xffffffffa802f9dd                RSE_CliConnectPort
                0xffffffffa802fb1d                RSE_SrvRegisterPort
                0xffffffffa802fc19                rdabt_rse_layer_ctrl
                0xffffffffa802fc55                SYSconfig_Initialise
                0xffffffffa802ff29                rf_dm_change
                0xffffffffa802ff8d                SYShalconfig_Get_Stored_BD_ADDR
                0xffffffffa802ffb5                SYSHal_Config_Apply
                0xffffffffa80303cd                SYShal_config_Initialise
                0xffffffffa8030599                SYSinit_Initialise
                0xffffffffa80305f5                SYSinit_Gpio_Write
                0xffffffffa803061d                SYSirq_Enable_Interrupts_Save_Flags
                0xffffffffa8030639                SYSirq_Initialise
                0xffffffffa80306d1                SYSpwr_Exit_Halt_System
                0xffffffffa80306dd                SYSpwr_Initialise
                0xffffffffa8030701                SYSpwr_Is_Low_Power_Mode_Active
                0xffffffffa803070d                SYSpwr_Set_LowFrequencyOscillatorAvailable_Value
                0xffffffffa8030719                SYSpwr_Set_Register_Bit
                0xffffffffa8030739                SYSpwr_Handle_Early_Wakeup2
                0xffffffffa8030781                SYSpwr_Halt_System2
                0xffffffffa803082d                SYSrand_Seed_Rand
                0xffffffffa803083d                SYSrand_Get_Rand_128_Ex
                0xffffffffa8030885                TC_BaseBand_Test_RxTest_Start
                0xffffffffa80308a1                TC_BaseBand_Test_Stop
                0xffffffffa80308c5                TC_BaseBand_Test_Tx_Burst_Start
                0xffffffffa8030915                TC_Set_Local_Bd_Addr
                0xffffffffa8030a35                rdabt_get_native_clock
                0xffffffffa8030a41                rdabt_get_bt_clock
                0xffffffffa8030a55                TRAhcit_Register_COMBINED
                0xffffffffa8030a61                rdabt_hci_SendData
                0xffffffffa8030ac9                rdabt_hci_FreeBuffer
                0xffffffffa8030b75                rdabt_hci_GetBuffer
                0xffffffffa8030cc1                TRAhcit_COMBINED_Dispatch_Data
                0xffffffffa8030d11                TRAhcit_COMBINED_Dispatch_Event
                0xffffffffa8030d39                TRAhcit_COMBINED_Dispatch_SCO_Data
                0xffffffffa8030d99                TRAhcit_COMBINED_Initialise
                0xffffffffa8030e65                TRAhcit_Set_Init_Timer
                0xffffffffa8030e79                _TRAhcit_Set_Init_Fccsleep_Flag
                0xffffffffa8030e89                _TRAhcit_Set_Init_Finish_Flag
                0xffffffffa8030e99                TRAhcit_Dispatch_Pending_Event
                0xffffffffa8030ed5                TRAhcit_Dispatch_Pending_Data
                0xffffffffa8030f29                TRAhcit_Dispatch_Pending_SCO
                0xffffffffa8030f65                TRAhcit_Initialise
                0xffffffffa8030fe5                _BTq_Get_Data_Queue_Ref
                0xffffffffa8031029                BTq_Initialise_Data_Queue_Type
                0xffffffffa80310ed                BTq_Get_L2CAP_Out_Heap_Ref
                0xffffffffa80310f9                BTq_Queue_Have_Packets
                0xffffffffa8031141                BTq_Dequeue_Next
                0xffffffffa80311ed                BTq_Withdraw
                0xffffffffa803128d                BTq_Enqueue2
                0xffffffffa8031439                BTq_Get_and_Reset_Queue_Number_Of_Processed_Chunks
                0xffffffffa8031469                _BTq_Initialise_Data_Queue
                0xffffffffa8031495                BTq_Deallocate_Queue_Data
                0xffffffffa803154d                BTq_Reset
                0xffffffffa803167d                _BTq_Initialise_Variable_Chunk_Queue
                0xffffffffa803170d                _BTq_Allocate_Data_Buffers_by_fix_databuff
                0xffffffffa8031875                _BTq_Initialise_All_Data_Queues
                0xffffffffa8031979                BTq_Initialise
                0xffffffffa80319c5                USLCchac_Set_InqScan_MAX_Rand
                0xffffffffa80319d1                USLCchac_Is_Sleep_Request_Pending
                0xffffffffa80319dd                USLCchac_Is_Sleep_Possible
                0xffffffffa8031a05                USLCchac_Wakeup2
                0xffffffffa8031a15                USLCchac_Initialise
                0xffffffffa8031a89                USLCchac_InqScan_Rand_Wait
                0xffffffffa8031ad9                USLCinq_Inquiry_Initialise
                0xffffffffa8031add                USLCinqScan_Initialise
                0xffffffffa8031afd                USLCinqScan_Get_EIR
                0xffffffffa8031b15                USLCinqScan_Set_EIR
                0xffffffffa8031ba1                USLCinqScan_Request
                0xffffffffa8031c29                USLCmss_Initialise
                0xffffffffa8031c39                USLCmss_Request
                0xffffffffa8031cc9                USLCpage_Initialise
                0xffffffffa8031cdd                USLCpage_Cancel
                0xffffffffa8031cf9                USLCpage_Request
                0xffffffffa8031db1                USLCpageScan_Initialise
                0xffffffffa8031dd1                USLCpageScan_Request
                0xffffffffa8031e31                USLCr2p_Initialise
                0xffffffffa8031e45                USLCsched_Set_Parameter
                0xffffffffa8031e61                USLCsched_Initialise
                0xffffffffa8031ea9                USLCsleep_Initialise
                0xffffffffa8031ecd                USLCsleep_Is_Tabasco_Asleep
                0xffffffffa8031ee1                USLCsleep_Set_Calib_Filter
                0xffffffffa8031f05                _USLCsleep_Low_Frequency_Calibration_GuangHui
                0xffffffffa8031fb5                USLCsleep_Wakeup2
                0xffffffffa8031fd9                USLCsleep_Request
                0xffffffffa8032061                USLCsleep_Cancel
                0xffffffffa80320c1                USLCsp_Initialise
                0xffffffffa80320e5                USLCtm_Initialise
                0xffffffffa80320fd                USLCtm_Store_Test_Parameters
                0xffffffffa80321f1                USLCtm_Build_Test_Packet_Payload
                0xffffffffa803225d                USLCtm_Testmode_Exit
                0xffffffffa80322b5                USLCtm_Testmode_Change_Settings
                0xffffffffa80323f1                USLCtm_Testmode_Request
                0xffffffffa80324d1                Avdtp_Set_First_Conection
                0xffffffffa80324e5                Avdtp_Set_SRC_First_Conection_Flag
                0xffffffffa80324f9                Avdtp_L2cap_Disconnect_Cfm_Cb
                0xffffffffa8032605                Avdtp_L2cap_Disconnect_Ind_Cb
                0xffffffffa8032775                Avdtp_L2cap_Data_Ind_Cb
                0xffffffffa8032839                Avdtp_L2cap_Configure_Cfm_Cb
                0xffffffffa8032a09                Avdtp_L2cap_Connect_Ind_Cb
                0xffffffffa8032bed                Avdtp_Send_Open
                0xffffffffa8032cc5                Avdtp_Send_GetCapabilities
                0xffffffffa8032d9d                Avdtp_Send_Discover
                0xffffffffa8032e41                Avdtp_Send_Suspend
                0xffffffffa8032f71                Avdtp_Send_SetConfiguration
                0xffffffffa803323d                Avdtp_Send_Close
                0xffffffffa8033389                Avrcp_L2cap_Disconnect_Cfm_Cb
                0xffffffffa8033445                Avrcp_L2cap_Disconnect_Ind_Cb
                0xffffffffa80334f9                Avrcp_L2cap_Data_Ind_Cb
                0xffffffffa8033541                Avrcp_L2cap_Configure_Cfm_Cb
                0xffffffffa803368d                Avrcp_L2cap_Connect_Ind_Cb
                0xffffffffa8033791                BTaddr_Build_Sync_Word
                0xffffffffa803380d                DL_Initialise
                0xffffffffa8033845                BTtimer_Set_Timer_On_Timing_Equation
                0xffffffffa8033875                BTtimer_Is_Timing_Equation_Satisfied
                0xffffffffa8033891                DL_Reset_RSSI_History
                0xffffffffa80338ad                DL_Free_Link
                0xffffffffa8033911                DL_Allocate_eSCO_Link
                0xffffffffa8033925                DL_Initialise_Link
                0xffffffffa80339e1                DL_Alloc_Link
                0xffffffffa8033a2d                DL_Initialise_All
                0xffffffffa8033a99                HC_Execute_Command
                0xffffffffa8033ac5                _Dispatch_Invalid_OGF_Command
                0xffffffffa8033ac9                HCbound_Check_IAC_LAPs
                0xffffffffa8033b11                _Dispatch_HC_BB_Command
                0xffffffffa8034249                _Dispatch_Info_Command
                0xffffffffa8034315                _Dispatch_Local_Status_Command
                0xffffffffa8034415                _Dispatch_Link_Policy_Command
                0xffffffffa8034695                _Dispatch_Link_Control_Command
                0xffffffffa8034d09                _Dispatch_Test_Command
                0xffffffffa8034d91                HC_Command_Dispatcher
                0xffffffffa8034df5                rdabt_hci_ReceiveData
                0xffffffffa8034ec5                hci_resend_acl_packet
                0xffffffffa8034f31                rdabt_hci_eventStatus2string
                0xffffffffa8034f51                rdabt_hci_debug_print_large_number
                0xffffffffa8034f65                rdabt_hci_debug_print_command_complete_event
                0xffffffffa803568d                rdabt_hci_debug_print_event
                0xffffffffa8036069                HCI_GenerateCommand
                0xffffffffa8036291                HF_AT_Write_Number
                0xffffffffa80362c9                HF_AT_Send
                0xffffffffa80364bd                HF_AT_Decode_Command
                0xffffffffa8036669                rdabt_host_ll_traverse
                0xffffffffa8036691                rdabt_host_ll_remove_all
                0xffffffffa80366d5                rdabt_host_ll_remove
                0xffffffffa803673d                rdabt_host_ll_search
                0xffffffffa80367a5                rdabt_host_ll_add
                0xffffffffa80367f1                HWcodec_Initialise
                0xffffffffa80367f5                HWcodec_Is_Valid_SCO_Conversion
                0xffffffffa8036849                HWcodec_Unregister_eSCO_Link
                0xffffffffa803687d                rdabt_l2_acl_find_handle
                0xffffffffa80368a5                rdabt_l2_acl_get_bd_addr
                0xffffffffa80368cd                rdabt_l2_acl_disable_RTX_timer
                0xffffffffa8036901                rdabt_l2_acl_start_RTX_timer
                0xffffffffa803695d                rdabt_l2_acl_exists
                0xffffffffa803699d                rdabt_l2_acl_free_link
                0xffffffffa8036a05                rdabt_l2_acl_timer_expired
                0xffffffffa8036ad1                rdabt_l2_acl_alloc_link
                0xffffffffa8036b95                rdabt_l2_pkt_handler
                0xffffffffa8036cb1                LMacl_Set_Key_Persistance
                0xffffffffa8036cc5                LMacl_Get_Current_Key_Persistance
                0xffffffffa8036cd1                LMacl_Initialise
                0xffffffffa8036da5                LMafh_Set_Request_Channel_Classification
                0xffffffffa8036db9                LMafh_Set_Device_Channel_Map_Update_Notification
                0xffffffffa8036dc9                LMPafh_Request_Classification_Reporting
                0xffffffffa8036e19                LMafh_Report_Slave_Channel_Classification
                0xffffffffa8036ef5                LMafh_LMP_Channel_Classification
                0xffffffffa8036f21                LMafh_Start_Classification_Reporting
                0xffffffffa8036f75                LMafh_Stop_Classification_Reporting
                0xffffffffa8036fa5                LMafh_LMP_Channel_Classification_Req
                0xffffffffa803702d                LMafh_Initialise_Classification
                0xffffffffa803705d                LMafh_LM_Write_AFH_Channel_Assessment_Mode
                0xffffffffa80370d5                LMafh_LM_Set_AFH_Channel_Classification
                0xffffffffa8037125                LMafh_Initialise
                0xffffffffa80371ad                _LMafh_Get_AFH_Instant
                0xffffffffa80371c5                _LMafh_Set_AFH_Instant
                0xffffffffa80371e5                LMafh_LMP_Channel_Classification_Ack
                0xffffffffa8037255                LMafh_LMP_Set_AFH_Ack
                0xffffffffa803729d                LMafh_Update_Slave_AFH_If_Required
                0xffffffffa8037345                LMafh_LMP_Set_AFH
                0xffffffffa8037369                LMafh_Update_Master_AFH_Piconet
                0xffffffffa80375c5                LMafh_Activate_AFH
                0xffffffffa8037659                OBEX_TransportConnect_RF
                0xffffffffa8037819                OBEX_TransportConnect_RF2
                0xffffffffa80378b9                OBEX_TransportDisconnect
                0xffffffffa8037921                OBEX_SetPath
                0xffffffffa8037991                rdabt_obex_put_or_get
                0xffffffffa8037a21                OBEX_Get
                0xffffffffa8037a45                OBEX_Connect
                0xffffffffa8037af9                OBEX_Disconnect
                0xffffffffa8037b61                rdabt_obex_message_setpath_callback
                0xffffffffa8037d0d                rdabt_obex_phonebook_set_name
                0xffffffffa8037fa5                OBEX_SetPhoneBookFormat
                0xffffffffa8038001                OBEX_SetPhoneBook
                0xffffffffa803805d                rdabt_obex_phonebook_set_param
                0xffffffffa803813d                OBEX_PullvCardList
                0xffffffffa80381d5                OBEX_PullPhoneBook
                0xffffffffa803829d                rdabt_obex_phonebook_setpath_callback
                0xffffffffa8038419                byteSwap
                0xffffffffa803844d                rdabt_MD5Transform
                0xffffffffa8038d95                rdabt_MD5Final
                0xffffffffa8038e31                rdabt_MD5Update
                0xffffffffa8038ee1                rdabt_MD5
                0xffffffffa8038f2d                OBEX_GenerateDigest
                0xffffffffa8038f99                OBEX_GenerateNonce
                0xffffffffa8039021                OBEX_Response
                0xffffffffa8039125                RDABT_RFCOMM_UE_Release_Write_Buffer
                0xffffffffa8039139                RDABT_RFCOMM_UE_Get_Write_Buffer
                0xffffffffa8039199                rdabt_rfcomm_credit_peer_nocredit
                0xffffffffa8039219                rdabt_rfcomm_tfunc_flow_dlci
                0xffffffffa8039235                rdabt_rfcomm_cc_transmit_cmesg
                0xffffffffa80392ad                rdabt_rfcomm_cc_timeout_cb
                0xffffffffa80392f5                rdabt_rfcomm_cc_cancel_timer
                0xffffffffa8039341                rdabt_rfcomm_cc_process_rpn
                0xffffffffa803947d                rdabt_rfcomm_cc_process_pn
                0xffffffffa80395c5                rdabt_rfcomm_cc_process_rls
                0xffffffffa8039651                rdabt_rfcomm_cc_process_fcoff
                0xffffffffa80396e1                rdabt_rfcomm_cc_process_fcon
                0xffffffffa803976d                rdabt_rfcomm_cc_process_test
                0xffffffffa80397f9                rdabt_rfcomm_cc_process_msc
                0xffffffffa803992d                rdabt_rfcomm_cc_data_ind
                0xffffffffa8039a11                rdabt_rfcomm_cc_create_fcon
                0xffffffffa8039a2d                rdabt_rfcomm_cc_create_fcoff
                0xffffffffa8039a49                rdabt_rfcomm_cc_create_nsc
                0xffffffffa8039a75                rdabt_rfcomm_cc_create_rpn_comm
                0xffffffffa8039ae1                rdabt_rfcomm_cc_create_msc
                0xffffffffa8039b89                rdabt_rfcomm_cc_create_rls
                0xffffffffa8039bb1                rdabt_rfcomm_cc_create_credit_pn
                0xffffffffa8039c09                rdabt_rfcomm_cc_create_test
                0xffffffffa8039c65                rdabt_sdp_encode_attribute_list
                0xffffffffa8039d3d                rdabt_sdp_encode_search_pattern
                0xffffffffa8039e29                rdabt_sdp_genetate_service_attribute_request
                0xffffffffa8039edd                OBEX_ChooseCurrentFolder
                0xffffffffa803a73d                Rdabt_Pskey_Write_r21
                0xffffffffa803a78d                RDABT_core_Intialization
                0xffffffffa803a7ad                RDABT_core_rf_Initialization

.btrom          0xffffffffa803a820     0x8970
 build/5856T_nolcd/btcpu/RDA5856/stripped_BTCPU_elf_file.elf(.btrom)
 .btrom         0xffffffffa803a820     0x8970 build/5856T_nolcd/btcpu/RDA5856/stripped_BTCPU_elf_file.elf
                0xffffffffa803a820                LSLCacc_packet_slots
                0xffffffffa803a830                _LSLCafh_channel_bit_vector
                0xffffffffa803a83c                permutationRF79
                0xffffffffa803a84c                permutationRF23
                0xffffffffa803a85c                tra_hcit_initialise_table
                0xffffffffa803a860                lmp_command_table
                0xffffffffa803a968                lmp_opcode_list
                0xffffffffa803a9cc                lmp_opcode_accept_list
                0xffffffffa803a9e8                lmp_opcode_not_accept_list
                0xffffffffa803aa04                lmp_opcode_pending
                0xffffffffa803aa58                lmp_command_table_escape_opcode_4
                0xffffffffa803aae4                _LM_Encode_lmp_command
                0xffffffffa803ab68                _LM_Encode_lmp_command_escape_opcode_4
                0xffffffffa803abac                _pdu_callback_table
                0xffffffffa803abec                _accept_callback_table
                0xffffffffa803ac24                _LMqos_max_slot_pkt_types
                0xffffffffa803ac2c                _LMqos_EDR_max_slot_pkt_types
                0xffffffffa803ac34                rate_to_pkt_mapping
                0xffffffffa803ac3c                EDR_rate_to_pkt_mapping
                0xffffffffa803ac64                LMscoctr_eSCO_lm_pkt
                0xffffffffa803acc8                lm_default_pub_key_192
                0xffffffffa803ad88                exparray
                0xffffffffa803ae88                logarray
                0xffffffffa803af88                matrix
                0xffffffffa803b088                predefined_public_key
                0xffffffffa803b1a4                _LMsec_Event_Timer
                0xffffffffa803b1ec                hc_cmd_complete_event_array
                0xffffffffa803b320                link_control_command_len
                0xffffffffa803b358                link_policy_command_len
                0xffffffffa803b36c                hc_bb_command_len
                0xffffffffa803b3ec                information_command_len
                0xffffffffa803b3f8                status_command_len
                0xffffffffa803b404                test_command_len
                0xffffffffa803b40c                ogf_jump_table
                0xffffffffa804252c                rdabt_hci_hci_status_to_name
                0xffffffffa804262c                rdabt_hci_opcode2name_array
                0xffffffffa8042d44                rdabt_hci_lmp_opcode_to_string
                0xffffffffa8042e84                rdabt_hci_command_parm_types
                0xffffffffa8042f30                rdabt_hci_group1_opcodes
                0xffffffffa8042fa8                rdabt_hci_group2_opcodes
                0xffffffffa8042fcc                rdabt_hci_group3_opcodes
                0xffffffffa80430a8                rdabt_hci_group4_opcodes
                0xffffffffa80430bc                rdabt_hci_group5_opcodes
                0xffffffffa80430d4                rdabt_hci_group6_opcodes
                0xffffffffa80430dc                rdabt_hci_command_groups
                0xffffffffa804311c                rdabt_vco_test_r16
                0xffffffffa804314c                SYSconst_Build_Time_Features

.bt_rodata      0xffffffffa8043190     0xbcc0
 build/5856T_nolcd/btcpu/RDA5856/stripped_BTCPU_elf_file.elf(.bt_rodata)
 .bt_rodata     0xffffffffa8043190     0xbcc0 build/5856T_nolcd/btcpu/RDA5856/stripped_BTCPU_elf_file.elf
                0xffffffffa8043230                g_tgtBtStackCfg
                0xffffffffa80432a8                g_tgtBtStackModuleList
                0xffffffffa8043b44                attribute_a2dp_sink_service_class
                0xffffffffa8043b50                attribute_a2dp_pdl_l2cap
                0xffffffffa8043b68                attribute_a2dp_pdl_avdtp
                0xffffffffa8043b80                attribute_a2dp_pdl
                0xffffffffa8043b98                attribute_a2dp_profile_list
                0xffffffffa8043bb0                attribute_a2dp_profile
                0xffffffffa8043bbc                a2dp_service_name_sink
                0xffffffffa8043bc8                a2dp_service_name_source
                0xffffffffa8043bd4                a2dp_provide_name
                0xffffffffa8043bec                attribute_a2dp_sink
                0xffffffffa8043c4c                attribute_a2dp_source_service_class
                0xffffffffa8043c58                attribute_a2dp_source
                0xffffffffa8045010                attribute_avrcp_ct_service_class
                0xffffffffa8045028                attribute_avrcp_pdl_l2cap
                0xffffffffa8045040                attribute_avrcp_pdl_avrcp
                0xffffffffa8045058                attribute_avrcp_pdl
                0xffffffffa8045070                attribute_avrcp_ct_profile_list
                0xffffffffa8045088                attribute_avrcp_ct_profile
                0xffffffffa8045094                attribute_avrcp_additional_pdl_l2cap
                0xffffffffa80450ac                attribute_avrcp_additional_pdl_avrcp
                0xffffffffa80450c4                attribute_avrcp_additional_pdl_list
                0xffffffffa80450dc                attribute_avrcp_additional_pdl
                0xffffffffa80450e8                attribute_avrcp_ct
                0xffffffffa8045128                attribute_avrcp_tg_service_class
                0xffffffffa8045134                attribute_avrcp_tg
                0xffffffffa8045ce8                attribute_hfp_service_class
                0xffffffffa8045d00                attribute_hfp_lang
                0xffffffffa8045d24                attribute_hfp_profile_list
                0xffffffffa8045d3c                attribute_hfp_profile
                0xffffffffa8045d48                hfp_service_name
                0xffffffffa8045d5c                attribute_hfp
                0xffffffffa804680c                module_names
                0xffffffffa804b4d8                a2dp_msg_hdlr_table
                0xffffffffa804b5e8                avrcp_msg_hdlr_table
                0xffffffffa804b678                hfp_msg_hdlr_table
                0xffffffffa804b6d8                mgr_msg_hdlr_table
                0xffffffffa804c120                attribute_header_service_class
                0xffffffffa804c12c                attribute_header_version
                0xffffffffa804c138                attribute_header
                0xffffffffa804c168                attribute_browsegroup_service_class
                0xffffffffa804c174                attribute_browsegroup
                0xffffffffa804c194                attribute_pdl_l2cap
                0xffffffffa804c1a0                attribute_pdl_rfcomm
                0xffffffffa804c1b8                attribute_rfcomm_pdl
                0xffffffffa804ea7c                btcore_rf_init_21_3
                0xffffffffa804ebd4                btcore_rf_init_21
                0xffffffffa804ee1c                rdabt_pskey_sleep
                0xffffffffa804ee24                rdabt_pskey_rf_setting
                0xffffffffa804ee30                rdabt_pskey_acl_buf_size_setting
                0xffffffffa804ee40                rdabt_pskey_pcm_config
                0xffffffffa804ee44                rdabt_pskey_sys_feature

.boot_code      0xffffffffa804ee80      0x470
 build/5856T_nolcd/btcpu/RDA5856/XCPU_elf_file.elf-stripped(.boot_code)
 .boot_code     0xffffffffa804ee80      0x470 build/5856T_nolcd/btcpu/RDA5856/XCPU_elf_file.elf-stripped
                0xffffffffa804ee80                boot_Sector
                0xffffffffa804ee80                _boot_sector
                0xffffffffa804f10d                boot_SectorFixRom
                0xffffffffa804f111                boot_SectorEnterBootMonitor
                0xffffffffa804f12d                hal_HstSendEvent
                0xffffffffa804f1b5                hal_SysSetupNonePLL
                0xffffffffa804f1b9                hal_SysEnableClkOut
                0xffffffffa804f205                hal_SysEnable8KSampleRate
                0xffffffffa804f221                hal_SysGetChipId
                0xffffffffa804f251                hal_SysSetupPLL
                0xffffffffa804f2c1                tgt_GetMemdFlashConfig
                0xffffffffa804f2cd                tgt_GetMemdRamConfig
                0xffffffffa804f2d8                g_tgtMemdFlashCfg
                0xffffffffa804f2e0                g_tgtMemdRamCfg

.main_entry_section
                0xffffffffa804f2f0      0x3f0
 build/5856T_nolcd/btcpu/RDA5856/XCPU_elf_file.elf-stripped(.main_entry_section)
 .main_entry_section
                0xffffffffa804f2f0      0x3f0 build/5856T_nolcd/btcpu/RDA5856/XCPU_elf_file.elf-stripped
                0xffffffffa804f2f0                _code_base
                0xffffffffa804f2f0                boot_LoaderEnter
                0xffffffffa804f32c                boot_get_testmode
                0xffffffffa804f33c                boot_set_testmode
                0xffffffffa804f348                boot_BreakBootMain
                0xffffffffa804f37c                boot_Loader
                0xffffffffa804f6e0                _board_config_end
                0xffffffffa804f6e0                _board_config_start

.dualport_sram_ubss
                0xffffffffa1b00000      0x210
 build/5856T_nolcd/btcpu/RDA5856/XCPU_elf_file.elf-stripped(.dualport_sram_ubss)
 .dualport_sram_ubss
                0xffffffffa1b00000      0x210 build/5856T_nolcd/btcpu/RDA5856/XCPU_elf_file.elf-stripped
                0xffffffffa1b00208                g_flash_write_req
                0xffffffffa1b00209                g_btcpu_wake_ind

.hal_boot_sector_struct
                0xffffffffa1c00000       0x1c
 build/5856T_nolcd/btcpu/RDA5856/XCPU_elf_file.elf-stripped(.hal_boot_sector_struct)
 .hal_boot_sector_struct
                0xffffffffa1c00000       0x1c build/5856T_nolcd/btcpu/RDA5856/XCPU_elf_file.elf-stripped

.hal_tflash_upgrade_struct
                0xffffffffa1c0001c       0x18
 build/5856T_nolcd/btcpu/RDA5856/XCPU_elf_file.elf-stripped(.hal_tflash_upgrade_struct)
 .hal_tflash_upgrade_struct
                0xffffffffa1c0001c       0x18 build/5856T_nolcd/btcpu/RDA5856/XCPU_elf_file.elf-stripped

.boot_tflash_upgrade_struct_ptr
                0xffffffffa1c00270        0x4
 build/5856T_nolcd/btcpu/RDA5856/XCPU_elf_file.elf-stripped(.boot_tflash_upgrade_struct_ptr)
 .boot_tflash_upgrade_struct_ptr
                0xffffffffa1c00270        0x4 build/5856T_nolcd/btcpu/RDA5856/XCPU_elf_file.elf-stripped
                0xffffffffa1c00270                g_tflashUpgradeStructPtr

.boot_sector_reload_struct_ptr
                0xffffffffa1c00274        0x4
 build/5856T_nolcd/btcpu/RDA5856/XCPU_elf_file.elf-stripped(.boot_sector_reload_struct_ptr)
 .boot_sector_reload_struct_ptr
                0xffffffffa1c00274        0x4 build/5856T_nolcd/btcpu/RDA5856/XCPU_elf_file.elf-stripped
                0xffffffffa1c00274                g_bootSectorReloadStructPtr

.boot_sector_struct_ptr
                0xffffffffa1c00278        0x4
 build/5856T_nolcd/btcpu/RDA5856/XCPU_elf_file.elf-stripped(.boot_sector_struct_ptr)
 .boot_sector_struct_ptr
                0xffffffffa1c00278        0x4 build/5856T_nolcd/btcpu/RDA5856/XCPU_elf_file.elf-stripped

.fixptr         0xffffffffa1c0027c        0x4
 build/5856T_nolcd/btcpu/RDA5856/XCPU_elf_file.elf-stripped(.fixptr)
 .fixptr        0xffffffffa1c0027c        0x4 build/5856T_nolcd/btcpu/RDA5856/XCPU_elf_file.elf-stripped
                0xffffffffa1c0027c                g_halFixedPointer

.irqsram        0xffffffffa1c00280      0x3e0 load address 0xffffffffa804f6e0
 build/5856T_nolcd/btcpu/RDA5856/XCPU_elf_file.elf-stripped(.irqsram)
 .irqsram       0xffffffffa1c00280      0x3e0 build/5856T_nolcd/btcpu/RDA5856/XCPU_elf_file.elf-stripped
                0xffffffffa1c00280                _sxr_Irq_handler

.bootsramtext   0xffffffffa1c00660      0x500 load address 0xffffffffa804fac0
 build/5856T_nolcd/btcpu/RDA5856/XCPU_elf_file.elf-stripped(.bootsramtext)
 .bootsramtext  0xffffffffa1c00660      0x500 build/5856T_nolcd/btcpu/RDA5856/XCPU_elf_file.elf-stripped
                0xffffffffa1c00661                memd_FlashRst
                0xffffffffa1c00665                memd_FlashWakeup
                0xffffffffa1c006b5                memd_FlashSleep
                0xffffffffa1c006f1                memd_FlashGetGlobalAddress
                0xffffffffa1c00745                get_flash_ID
                0xffffffffa1c00785                memd_FlashErase2
                0xffffffffa1c007b5                write_flash_status
                0xffffffffa1c00839                spi_flash_quard_ctrl
                0xffffffffa1c008cd                memd_FlashOpen
                0xffffffffa1c00a35                hal_EbcConfigRemap
                0xffffffffa1c00a41                hal_EbcFlashOpen
                0xffffffffa1c00a4d                hal_EbcFlashWriteEnable
                0xffffffffa1c00a61                hal_EbcFlashWriteEnabled
                0xffffffffa1c00a75                hal_FlashCacheFlush
                0xffffffffa1c00a99                hal_FlashCacheDebugOn
                0xffffffffa1c00aa5                hal_SpiFlashInit
                0xffffffffa1c00b19                hal_FlashCacheIrqHandler

.bootsramdata   0xffffffffa1c00b60       0x30 load address 0xffffffffa804ffc0
 build/5856T_nolcd/btcpu/RDA5856/XCPU_elf_file.elf-stripped(.bootsramdata)
 .bootsramdata  0xffffffffa1c00b60       0x30 build/5856T_nolcd/btcpu/RDA5856/XCPU_elf_file.elf-stripped
                0xffffffffa1c00b60                g_dif_opcode_suspend
                0xffffffffa1c00b61                g_dif_opcode_resume
                0xffffffffa1c00b62                g_dif_opcode_enable_QPI
                0xffffffffa1c00b63                g_dif_opcode_disable_QPI
                0xffffffffa1c00b64                g_dif_opcode_enable_RST
                0xffffffffa1c00b65                g_dif_opcode_execute_RST
                0xffffffffa1c00b68                g_memdFlashBankLayout

.bootbss        0xffffffffa1c00b90       0x30
 build/5856T_nolcd/btcpu/RDA5856/XCPU_elf_file.elf-stripped(.bootbss)
 .bootbss       0xffffffffa1c00b90       0x30 build/5856T_nolcd/btcpu/RDA5856/XCPU_elf_file.elf-stripped
                0xffffffffa1c00b90                FLASH_IN_DP
                0xffffffffa1c00ba4                g_spiflash_ID
                0xffffffffa1c00bb0                g_halCs0WriteSetting

.sramtext       0xffffffffa1c00bc0       0xc0 load address 0xffffffffa804fff0
 build/5856T_nolcd/btcpu/RDA5856/XCPU_elf_file.elf-stripped(.sramtext)
 .sramtext      0xffffffffa1c00bc0       0xc0 build/5856T_nolcd/btcpu/RDA5856/XCPU_elf_file.elf-stripped
                0xffffffffa1c00bc1                hal_IrqDispatch

.sramdata       0xffffffffa1c00c80      0x6a0 load address 0xffffffffa80500b0
 build/5856T_nolcd/btcpu/RDA5856/XCPU_elf_file.elf-stripped(.sramdata)
 .sramdata      0xffffffffa1c00c80      0x6a0 build/5856T_nolcd/btcpu/RDA5856/XCPU_elf_file.elf-stripped
                0xffffffffa1c00c9c                XCV
                0xffffffffa1c00ca0                g_xcvChipId
                0xffffffffa1c00ca4                g_AfcOffset
                0xffffffffa1c00ca8                g_afcDacVal
                0xffffffffa1c00caa                g_CdacDelta
                0xffffffffa1c00cac                g_lastSleepMode
                0xffffffffa1c00cb0                g_RxPllFreqReg_05h
                0xffffffffa1c00cb4                g_xcvCmdCtx
                0xffffffffa1c00cc0                g_xcvCalibSetPaRamp
                0xffffffffa1c00cc4                g_CDAC
                0xffffffffa1c00cc8                g_xcvCalibPaRampValue
                0xffffffffa1c00cd0                hal_GdbGBreak
                0xffffffffa1c00d10                g_halBTOverlayOwners
                0xffffffffa1c00d14                g_halSysSystemFreq
                0xffffffffa1c00de4                First_Pa_Set
                0xffffffffa1c00de8                gUsbRegs
                0xffffffffa1c00f24                g_sxMapVersion
                0xffffffffa1c00f34                g_sxMapAccess
                0xffffffffa1c00f40                trace_pos
                0xffffffffa1c00f44                musicItf
                0xffffffffa1c00f70                rdabt_p
                0xffffffffa1c00f9c                g_pmdChargerInIrqEnabled
                0xffffffffa1c00fbc                g_pmdChargerState
                0xffffffffa1c00ffc                cii_tone_sate
                0xffffffffa1c01000                gAudio_mode
                0xffffffffa1c01004                audio_cfg
                0xffffffffa1c01014                audioStream
                0xffffffffa1c01030                spkLevelBackup
                0xffffffffa1c01034                g_hDevSem
                0xffffffffa1c01054                MMC_ScoMicDataReadySend
                0xffffffffa1c01055                HistoryScoReceiveDataLen
                0xffffffffa1c01058                g_BtCtx
                0xffffffffa1c010c0                CvsdEncJudgeAlpha
                0xffffffffa1c010c2                CvsdDecJudgeAlpha
                0xffffffffa1c010c4                pcmbuf_overlay
                0xffffffffa1c010c8                inputbuf_overlay
                0xffffffffa1c010cc                pBtSpeechFifoOverlay
                0xffffffffa1c010d0                pBtSpeechVocOverlay
                0xffffffffa1c010d4                pBtSpeechNSPcmOverlay
                0xffffffffa1c010da                SpeedMode
                0xffffffffa1c010dc                g_WAVFILESIZE
                0xffffffffa1c010e0                WMA_PCM_BUFF
                0xffffffffa1c010e4                PrevOutput
                0xffffffffa1c010ee                gMicGain
                0xffffffffa1c010f0                pDataBuffer
                0xffffffffa1c010f4                recHandle
                0xffffffffa1c010f8                mmc_amrcodec
                0xffffffffa1c010fc                mmcRecFormat
                0xffffffffa1c011e8                MAXLOG
                0xffffffffa1c011f0                MINLOG
                0xffffffffa1c011f8                MAXNUM
                0xffffffffa1c01200                PIO4
                0xffffffffa1c01208                SQRT2
                0xffffffffa1c01210                LOGE2
                0xffffffffa1c01218                INFINITY
                0xffffffffa1c01220                NAN
                0xffffffffa1c01228                NEGZERO
                0xffffffffa1c01230                test_cont
                0xffffffffa1c01231                g_led_bg_pattern_id
                0xffffffffa1c01234                g_fs_sem
                0xffffffffa1c01238                g_fs_cfg
                0xffffffffa1c01240                g_UctTableLen
                0xffffffffa1c01244                g_current_fd
                0xffffffffa1c01248                g_tgtAudInit
                0xffffffffa1c0124c                g_last_reslt
                0xffffffffa1c01250                g_play_disk
                0xffffffffa1c01251                g_next_play_disk
                0xffffffffa1c01252                g_bat_time
                0xffffffffa1c01254                is_first_batt
                0xffffffffa1c01268                linein_volume
                0xffffffffa1c0126c                g_umssStorageMcCallback
                0xffffffffa1c0128c                g_halMapVersion
                0xffffffffa1c0129c                g_halMapAccess
                0xffffffffa1c012f0                g_halSdmmcWriteCh
                0xffffffffa1c012f1                g_halSdmmcReadCh
                0xffffffffa1c01300                PowerOn_Cause
                0xffffffffa1c01304                g_atMapVersion
                0xffffffffa1c01314                g_atMapAccess
                0xffffffffa1c09310                _gp

.sramucdata     0xffffffffa1c01320      0x830 load address 0xffffffffa8050750
 build/5856T_nolcd/btcpu/RDA5856/XCPU_elf_file.elf-stripped(.sramucdata)
 .sramucdata    0xffffffffa1c01320      0x830 build/5856T_nolcd/btcpu/RDA5856/XCPU_elf_file.elf-stripped
                0xffffffffa1c01320                _sys_sram_uncached_start
                0xffffffffa1c01320                g_tgtCalibCfg
                0xffffffffa1c01b38                g_atInDbgHstAccess

.sramucbss      0xffffffffa1c01b50     0x49f0
 build/5856T_nolcd/btcpu/RDA5856/XCPU_elf_file.elf-stripped(.sramucbss)
 .sramucbss     0xffffffffa1c01b50     0x49f0 build/5856T_nolcd/btcpu/RDA5856/XCPU_elf_file.elf-stripped
                0xffffffffa1c01b50                g_halEventMask
                0xffffffffa1c01c94                g_halGdbSwitchCtx
                0xffffffffa1c01c98                g_halLpsForceNoSleep
                0xffffffffa1c01c9c                g_halIspiDebug
                0xffffffffa1c01ca4                g_sxsDebugIdleHookEnable
                0xffffffffa1c01ca8                g_sxExternalTraceEnable
                0xffffffffa1c01cac                g_sxTraceLelvel
                0xffffffffa1c01cec                sxs_trace_buf
                0xffffffffa1c01d6c                VendorCmdFinish
                0xffffffffa1c01d70                BulkTransFinish
                0xffffffffa1c01d7c                g_UartInfo
                0xffffffffa1c01f30                micStream
                0xffffffffa1c01f4c                MicData
                0xffffffffa1c021cc                ScoSendData
                0xffffffffa1c02244                ReceivedScoDataCache
                0xffffffffa1c024c4                ScoRcvData
                0xffffffffa1c0253c                bigbuf

.srambss        0xffffffffa1c06540     0x28e0
 build/5856T_nolcd/btcpu/RDA5856/XCPU_elf_file.elf-stripped(.srambss)
 .srambss       0xffffffffa1c06540     0x28e0 build/5856T_nolcd/btcpu/RDA5856/XCPU_elf_file.elf-stripped
                0xffffffffa1c06540                g_mmcApiSem
                0xffffffffa1c06544                g_sys_timer_id_usb_detect
                0xffffffffa1c06548                sxr_Mutex
                0xffffffffa1c06550                sxs_PrcsRmtDataArray
                0xffffffffa1c06554                sxs_Spy
                0xffffffffa1c0655c                sxr_Job
                0xffffffffa1c06560                ear_time_handle
                0xffffffffa1c06561                linein_time_handle
                0xffffffffa1c06562                g_tflash_detect_flag
                0xffffffffa1c06564                g_gpio_config
                0xffffffffa1c06568                key_status
                0xffffffffa1c06570                halErr
                0xffffffffa1c06571                g_audWM8960Recording
                0xffffffffa1c06572                g_audWM8960Playing
                0xffffffffa1c06573                g_audWM8960Opened
                0xffffffffa1c06574                error
                0xffffffffa1c06578                g_pmdConfig
                0xffffffffa1c0657c                g_tsk_calib_flag
                0xffffffffa1c0657d                g_spk_gain
                0xffffffffa1c06580                p_Data_Header
                0xffffffffa1c06584                cmd
                0xffffffffa1c06588                irq_status
                0xffffffffa1c0658c                ScoSendMsg
                0xffffffffa1c06594                g_apbsErrNb
                0xffffffffa1c06598                g_apbsAmrRing
                0xffffffffa1c0659c                g_audio_format
                0xffffffffa1c065a0                audio_mode
                0xffffffffa1c065a4                MCI_Play_BTStream
                0xffffffffa1c065a8                MCI_BTAudioCap
                0xffffffffa1c065ac                g_last_buffer_addr
                0xffffffffa1c065b0                g_PCM_SMAPLE_RATE_ERROR
                0xffffffffa1c065b4                MpegPlayer
                0xffffffffa1c065b8                AAClearBuffer
                0xffffffffa1c065bc                AACFRAME
                0xffffffffa1c065c0                SBCPlayer
                0xffffffffa1c065c4                WavPlayer
                0xffffffffa1c065c8                wmafilestateinternal
                0xffffffffa1c065cc                WMA_PLAYER
                0xffffffffa1c065d0                OUTPUT_BUFF_PUT_POINT
                0xffffffffa1c065d4                g_comval
                0xffffffffa1c065d8                g_current_language
                0xffffffffa1c065d9                g_usb_active_after_bt
                0xffffffffa1c065da                g_linein_detect_flag
                0xffffffffa1c065dc                cos_mem_check
                0xffffffffa1c065e4                g_pHeapTop
                0xffffffffa1c065e8                g_list_current_entry
                0xffffffffa1c065f0                TIM_LastErrorCode
                0xffffffffa1c065f4                exfatDirCache
                0xffffffffa1c065fc                event_detected_displaying_log
                0xffffffffa1c06600                key_info
                0xffffffffa1c06608                fcc_param
                0xffffffffa1c06610                FMStatus
                0xffffffffa1c06614                fselPlaylistItemCur
                0xffffffffa1c06616                fselPlaylistItemTotal
                0xffffffffa1c06618                g_halSpeechBtFifo
                0xffffffffa1c0661c                g_test_mode
                0xffffffffa1c06620                g_halBtHostIrqHandler
                0xffffffffa1c06624                g_halBtStarted
                0xffffffffa1c06625                g_halBTSleep
                0xffffffffa1c06628                g_halSysClockOutRegistry
                0xffffffffa1c066f0                g_USB_DEVICE
                0xffffffffa1c066f4                usb_poweron_det
                0xffffffffa1c066f8                g_pfDisconnCb
                0xffffffffa1c06708                count_MUSB_RXCOUNT
                0xffffffffa1c067e0                I2s_DataFormat
                0xffffffffa1c06800                g_halGpioRegistry
                0xffffffffa1c06840                g_halLpsSleptBefore
                0xffffffffa1c06841                g_halSysLpsLock
                0xffffffffa1c06844                g_halMapTable
                0xffffffffa1c06916                Codec_Need_Audpll_flag
                0xffffffffa1c069ac                g_halDmaUserId
                0xffffffffa1c069b0                g_halDmaRegistry
                0xffffffffa1c069b4                g_sxsFsIdleHookFuncPtr
                0xffffffffa1c069b8                g_sxsDebugIdleHookFuncPtr
                0xffffffffa1c069c8                TEST_M
                0xffffffffa1c069d0                g_audSetHeadMaxDigitalGain
                0xffffffffa1c069d1                g_audSetMicMaxGain
                0xffffffffa1c069e4                g_audCodecCurrentAifCfgPtr
                0xffffffffa1c069e8                g_audFirstOpen
                0xffffffffa1c06a05                rdabt_send_notify_pending
                0xffffffffa1c06a08                g_btdConfig
                0xffffffffa1c06a0c                rdabt_cntx
                0xffffffffa1c06a78                mcd_usbHostInitOpCompleteCb_status
                0xffffffffa1c06adc                g_pmdIrqSettingLatest
                0xffffffffa1c06b94                global_last_key_vol
                0xffffffffa1c06b98                global_temp_count
                0xffffffffa1c06b9c                global_result_all
                0xffffffffa1c06c30                usb_music_udiskready
                0xffffffffa1c06c3c                g_pmEarDetect
                0xffffffffa1c06c44                g_pm_oldStatus
                0xffffffffa1c06c79                audioBusy
                0xffffffffa1c06c7a                isSPKMute
                0xffffffffa1c06c7b                tone_slot
                0xffffffffa1c06c7c                audioItf
                0xffffffffa1c06c80                audioItfBackup
                0xffffffffa1c06c84                g_audioRecBufStart
                0xffffffffa1c06c88                g_audioRecBufLen
                0xffffffffa1c06c8c                g_audioRecBufOffset
                0xffffffffa1c06c90                gSpeakerOpen_stasus
                0xffffffffa1c06c91                gMicOpen_stasus
                0xffffffffa1c06c92                Speeching
                0xffffffffa1c06c94                sco_ret
                0xffffffffa1c06cb0                g_pDevDescrip
                0xffffffffa1c06cb4                g_iDevDescripCount
                0xffffffffa1c06cb8                g_pDsmDevInfo
                0xffffffffa1c06cbc                g_iDsmDevCount
                0xffffffffa1c06cc0                g_curModifyPos
                0xffffffffa1c06cf4                g_UctlsStatus
                0xffffffffa1c06d54                UsbCmdFinished
                0xffffffffa1c06dc4                g_PlcTicks
                0xffffffffa1c06dc8                SendDataLen
                0xffffffffa1c06dca                ReceiveDataLen
                0xffffffffa1c06dcc                MMC_ScoDataReadyPlay
                0xffffffffa1c06dcd                ScoReceiveDataFlag
                0xffffffffa1c06dd0                g_BtRecordMicPcmBuffer
                0xffffffffa1c06dd4                g_msdfReload
                0xffffffffa1c06dd8                BT_AudInterface
                0xffffffffa1c06ddc                BT_VoCRunFlag
                0xffffffffa1c06dde                BT_AudPath
                0xffffffffa1c06dec                CvsdEncFirstFrameFlag
                0xffffffffa1c06efc                MMC_LcdWidth
                0xffffffffa1c06f00                MMC_LcdHeight
                0xffffffffa1c06f04                g_mciAudioFinishedCallback
                0xffffffffa1c06f08                g_mmcStreamUserHandler
                0xffffffffa1c06f0c                g_mciAudioRecordFinishedCallback
                0xffffffffa1c06f10                MCI_Play_Stream_Buffer
                0xffffffffa1c06f14                MCI_Play_Stream_Buffer_Length
                0xffffffffa1c06f18                MCI_Play_Stream_Buffer_Address
                0xffffffffa1c06f3c                gnMmcMode
                0xffffffffa1c06f40                gAudio
                0xffffffffa1c06f64                gRecord
                0xffffffffa1c06f7c                g_audioIsReadingFIle
                0xffffffffa1c06f9c                g_mmcAudioFactoryTestHandler
                0xffffffffa1c06fa0                find_head_length
                0xffffffffa1c06fa4                mp3_head
                0xffffffffa1c06fa8                flag_PCM
                0xffffffffa1c06faa                PA_Count
                0xffffffffa1c06fd0                g_SBCConsumedLength
                0xffffffffa1c06fd4                g_MuteFlag
                0xffffffffa1c06fd8                g_MuteBeginTick
                0xffffffffa1c06fdc                g_mmcCheckSbcMuteCallback
                0xffffffffa1c06fe0                sbc_mute_times
                0xffffffffa1c06fe4                sbc_check_mute_begain
                0xffffffffa1c07010                g_WAVConsumedLength
                0xffffffffa1c0706c                g_WMAConsumedLength
                0xffffffffa1c07070                g_read_wma_length
                0xffffffffa1c07080                g_MallocedCount
                0xffffffffa1c07084                vpp_AudioJpegDecVocOpen_status
                0xffffffffa1c07086                kalaok_support_flag
                0xffffffffa1c07094                g_BTRxBuf
                0xffffffffa1c07098                g_BTTxBuf
                0xffffffffa1c0709c                g_Bluetooth_RxBuf
                0xffffffffa1c070a0                g_Bluetooth_TxBuf
                0xffffffffa1c070a4                g_vppMicNoiseSuppressRAMX
                0xffffffffa1c070a8                g_vppReceiverNoiseSuppressRAMX
                0xffffffffa1c070b0                sndRecBuffer
                0xffffffffa1c070b4                sndRecRingBuffer
                0xffffffffa1c070b8                sndRecBufferLength
                0xffffffffa1c070bc                g_audioRecCount
                0xffffffffa1c070c0                g_audioRecNB
                0xffffffffa1c070c4                rec_audioItf
                0xffffffffa1c070c8                rec_paused
                0xffffffffa1c071c4                g_apfsDecFinishFlag
                0xffffffffa1c071c5                g_apfsErrorFlag
                0xffffffffa1c071c8                g_apfsFramesPlayedNb
                0xffffffffa1c07244                merror
                0xffffffffa1c07248                gpCurrentFont
                0xffffffffa1c0724c                gpDefaultFont
                0xffffffffa1c07250                gpAsciiFont
                0xffffffffa1c07254                gpResourceBase
                0xffffffffa1c07258                gpAudioList
                0xffffffffa1c0725c                gAudioCount
                0xffffffffa1c07260                gpAudioDataBase
                0xffffffffa1c07264                gpLedPatternList
                0xffffffffa1c07268                gLedPatternCount
                0xffffffffa1c0726c                gpLedPatternDataBase
                0xffffffffa1c07270                g_sys_sleep_flag
                0xffffffffa1c07271                g_rtc_count
                0xffffffffa1c07272                g_key_filter
                0xffffffffa1c07273                global_first_keydown
                0xffffffffa1c0727c                s_cos_mem_track_caller
                0xffffffffa1c07280                s_cos_mem_track_total_inuse
                0xffffffffa1c07284                s_cos_mem_track
                0xffffffffa1c07618                g_cur_volume
                0xffffffffa1c0761c                g_led_cur_pattern
                0xffffffffa1c07620                g_led_cur_count
                0xffffffffa1c07621                g_led_cur_pos
                0xffffffffa1c07622                g_led_cur_length
                0xffffffffa1c07623                g_led_cur_pattern_id
                0xffffffffa1c07624                g_led_cur_timer_id
                0xffffffffa1c07628                g_led_bg_pattern
                0xffffffffa1c0762c                g_led_bg_count
                0xffffffffa1c0762d                g_led_bg_pos
                0xffffffffa1c0762e                g_led_bg_length
                0xffffffffa1c0762f                g_led_bg_timer_id
                0xffffffffa1c07640                g_fs_current
                0xffffffffa1c07868                g_fs_file_list
                0xffffffffa1c0786c                g_pFsDevInfo
                0xffffffffa1c07870                g_fs_super_block_table
                0xffffffffa1c07874                g_tstFsLocalErrCode
                0xffffffffa1c0787c                g_FatCache
                0xffffffffa1c07880                g_FatCahcheNum
                0xffffffffa1c07884                g_TstFsErrCode
                0xffffffffa1c07888                g_audioSem
                0xffffffffa1c078b4                g_sysconfig
                0xffffffffa1c078d8                g_displayconfig
                0xffffffffa1c078e8                g_btconfig
                0xffffffffa1c07920                g_current_module
                0xffffffffa1c07924                tflash_poweron_flag1
                0xffffffffa1c07944                g_shutdown_tm_handle
                0xffffffffa1c07945                g_light_time
                0xffffffffa1c07946                g_standby_time
                0xffffffffa1c07948                g_rtc_counter
                0xffffffffa1c0794a                g_key_hold_flag
                0xffffffffa1c0794b                g_mute_flag
                0xffffffffa1c0794c                batt_timer
                0xffffffffa1c079a0                app_bt_vars
                0xffffffffa1c079a4                app_inquiry_data
                0xffffffffa1c079ac                app_bt_get_rssi_hdl
                0xffffffffa1c079b0                app_clean_addr
                0xffffffffa1c079b8                flash_info_debug
                0xffffffffa1c079c8                g_music_vars
                0xffffffffa1c079cc                g_music_gui_ptr
                0xffffffffa1c079d0                pbap_msg
                0xffffffffa1c079ec                g_file_size
                0xffffffffa1c079f0                g_rec_time
                0xffffffffa1c079f4                g_rec_bitrate
                0xffffffffa1c079f8                g_free_space
                0xffffffffa1c079fc                g_record_vars
                0xffffffffa1c07a00                g_file_num
                0xffffffffa1c07a01                g_max_file_num
                0xffffffffa1c07a04                g_totalTime
                0xffffffffa1c07a08                g_file_date
                0xffffffffa1c07a0c                g_file_time
                0xffffffffa1c07a10                g_rec_status
                0xffffffffa1c07a18                g_testfile_entry
                0xffffffffa1c07a20                play_end
                0xffffffffa1c07a22                g_usb_connected
                0xffffffffa1c07a23                a2dp_connect_role
                0xffffffffa1c07a50                FmSearchPtr
                0xffffffffa1c07a54                edit_station
                0xffffffffa1c07a55                output_flag
                0xffffffffa1c07a58                g_fm_status
                0xffffffffa1c07a60                fselPLOrCommonDir
                0xffffffffa1c07a61                fselType
                0xffffffffa1c07a62                fselMode
                0xffffffffa1c07a63                fselError
                0xffffffffa1c07a64                fselDiskLetter
                0xffffffffa1c07a66                fselFileNo
                0xffffffffa1c07a68                fselTotal
                0xffffffffa1c07a6c                iphone_str
                0xffffffffa1c07adc                g_voiceMuteBtEnabled
                0xffffffffa1c07ae0                g_halSpeechBtMutedCount
                0xffffffffa1c07afc                key_enterInterrupt
                0xffffffffa1c07b14                g_sd_sleepIn
                0xffffffffa1c08828                g_KeyBoard_Init_Status
                0xffffffffa1c0882c                g_AtModule
                0xffffffffa1c08be4                pBuffer
                0xffffffffa1c08be8                g_halSysFreqScalRegistry
                0xffffffffa1c08c10                g_halNumberOfUserPerFreq
                0xffffffffa1c08c1c                g_halLpsCtx
                0xffffffffa1c08c4c                g_McdUsbInst
                0xffffffffa1c08c80                SbcBtPacket
                0xffffffffa1c08ca4                TonePlayer
                0xffffffffa1c08cc0                g_Malloced_p
                0xffffffffa1c08ce0                cos_mem_info
                0xffffffffa1c08d18                cos_mem_usage
                0xffffffffa1c08db8                app_msg_info
                0xffffffffa1c08de8                I2SAifConfig
                0xffffffffa1c08e10                g_audCodecGalliteAifCfg

.backup         0xffffffffa1c08e20       0x10
 build/5856T_nolcd/btcpu/RDA5856/XCPU_elf_file.elf-stripped(.backup)
 .backup        0xffffffffa1c08e20       0x10 build/5856T_nolcd/btcpu/RDA5856/XCPU_elf_file.elf-stripped

.spi_reg_debug  0xffffffffa2000000      0x780
 build/5856T_nolcd/btcpu/RDA5856/XCPU_elf_file.elf-stripped(.spi_reg_debug)
 .spi_reg_debug
                0xffffffffa2000000      0x780 build/5856T_nolcd/btcpu/RDA5856/XCPU_elf_file.elf-stripped
                0xffffffffa2000000                _spi_reg_debug_start
                0xffffffffa2000500                g_abbSpiRegValue
                0xffffffffa2000640                g_pmdSpiRegValue

.rotext         0xffffffffa8050f80    0x47380
 build/5856T_nolcd/btcpu/RDA5856/XCPU_elf_file.elf-stripped(.rotext)
 .rotext        0xffffffffa8050f80    0x47380 build/5856T_nolcd/btcpu/RDA5856/XCPU_elf_file.elf-stripped
                0xffffffffa8050f80                hal_GdbFlushCache
                0xffffffffa8050f98                hal_GdbFlushCacheData
                0xffffffffa8050fc0                sxr_TaskSetUp
                0xffffffffa8050fe8                sxr_TaskFirst
                0xffffffffa805102c                sxr_JobSetUp
                0xffffffffa8051061                __fixunsdfsi
                0xffffffffa80510b1                __divdi3
                0xffffffffa8051479                __udivdi3
                0xffffffffa80517f5                __umoddi3
                0xffffffffa8051c9d                __subsf3
                0xffffffffa8051ce1                __addsf3
                0xffffffffa8051d1d                __mulsf3
                0xffffffffa8051e19                __gesf2
                0xffffffffa8051e5d                __floatsisf
                0xffffffffa8051eb9                __fixsfsi
                0xffffffffa8051f11                __extendsfdf2
                0xffffffffa8051f3d                __floatunsisf
                0xffffffffa8052209                __subdf3
                0xffffffffa8052251                __adddf3
                0xffffffffa8052291                __muldf3
                0xffffffffa8052449                __divdf3
                0xffffffffa8052581                __eqdf2
                0xffffffffa80525c9                __nedf2
                0xffffffffa8052611                __gtdf2
                0xffffffffa8052659                __gedf2
                0xffffffffa80526a1                __ltdf2
                0xffffffffa80526e9                __ledf2
                0xffffffffa8052731                __floatsidf
                0xffffffffa80527a9                __fixdfsi
                0xffffffffa805280d                __make_dp
                0xffffffffa805282d                __truncdfsf2
                0xffffffffa8052869                __lshrdi3
                0xffffffffa80528a5                __ashldi3
                0xffffffffa80528e1                __ucmpdi2
                0xffffffffa8052909                __clzsi2
                0xffffffffa8052945                __fpcmp_parts_f
                0xffffffffa80529a9                __make_fp
                0xffffffffa80529c1                __pack_d
                0xffffffffa8052b65                __unpack_d
                0xffffffffa8052c11                __fpcmp_parts_d
                0xffffffffa8052c89                hal_IsBtStart
                0xffffffffa8052c95                hal_IsBtSleep
                0xffffffffa8052ca1                hal_IsBtDead
                0xffffffffa8052cc5                hal_BtEnableSleep
                0xffffffffa8052ced                hal_BtWakeUp
                0xffffffffa8052d25                hal_BtSleep
                0xffffffffa8052d59                hal_BtNotifyDataSent
                0xffffffffa8052d99                hal_BtStop
                0xffffffffa8052e01                hal_BtIrqHandler
                0xffffffffa8052ebd                hal_BtSetHostIrqHandler
                0xffffffffa8052f11                hal_BtStart
                0xffffffffa8052fad                hal_OverlayIsLoaded
                0xffffffffa8052fbd                hal_BTOverlayLoad
                0xffffffffa8053015                hal_Open
                0xffffffffa8053125                hal_SysGetFreq
                0xffffffffa8053131                hal_SysGetShutdownFlag
                0xffffffffa805314d                hal_SysSetBootMode
                0xffffffffa8053179                hal_SysGetPLLLock
                0xffffffffa805318d                hal_SysIsPllNeeded
                0xffffffffa80532c5                hal_SysGetResetCause
                0xffffffffa80532f9                hal_SysExitCriticalSection
                0xffffffffa8053305                hal_SysEnterCriticalSection
                0xffffffffa8053311                hal_SysSetupSystemClock
                0xffffffffa80533c9                hal_SysSoftReset
                0xffffffffa80533ed                hal_SysFSF2SF
                0xffffffffa8053489                hal_SysGetRequestFreq
                0xffffffffa80534a1                hal_SysSF2FSF
                0xffffffffa8053549                hal_SysInvalidateCache
                0xffffffffa8053571                hal_SysRequestPll
                0xffffffffa80535e5                hal_SysSetSpiFlashClock
                0xffffffffa80536fd                hal_SysSetVocClock
                0xffffffffa8053839                hal_SysSetVocClockDefault
                0xffffffffa80538f9                hal_SysRestart
                0xffffffffa8053931                hal_SysShutdown
                0xffffffffa805399d                hal_SysUpdateSystemFrequency
                0xffffffffa8053b15                hal_SysRequestFreq
                0xffffffffa8053c01                hal_SysClkOutClose
                0xffffffffa8053c6d                hal_SysClkOutOpen
                0xffffffffa8053d0d                hal_IfcOpen
                0xffffffffa8053d29                hal_IfcTransferStart
                0xffffffffa8053e05                hal_IfcChannelIsFifoEmpty
                0xffffffffa8053e69                hal_IfcChannelFlush
                0xffffffffa8053ec9                hal_IfcChannelRelease
                0xffffffffa8053f25                hal_TcuOpen
                0xffffffffa8053f31                hal_TcuStop
                0xffffffffa8053f49                hal_TcuIrqHandler
                0xffffffffa8053f85                hal_TcuSetWrap
                0xffffffffa8053fb1                hal_TcuInit
                0xffffffffa8054095                hal_TimWatchDogKeepAlive
                0xffffffffa80540b1                hal_TimWatchDogClose
                0xffffffffa80540c1                hal_TimWatchDogStop
                0xffffffffa80540cd                hal_TimTickIrqHandler
                0xffffffffa80540f1                hal_TimTickOpen
                0xffffffffa805411d                hal_TimTimersIrqHandler
                0xffffffffa805412d                hal_TimGetReminderTime
                0xffffffffa805415d                hal_TimSetExpirationTime
                0xffffffffa80542c9                hal_UsbEpRxTransferedSize
                0xffffffffa80542dd                hal_UsbIsWorkAsHost
                0xffffffffa8054305                hal_UsbSetDisconnCb
                0xffffffffa8054311                hal_UsbSetMode
                0xffffffffa805431d                hal_UsbGetMode
                0xffffffffa8054329                hal_UsbEpStall
                0xffffffffa8054341                hal_musb_start
                0xffffffffa8054551                hal_UsbClose
                0xffffffffa8054625                hal_UsbReset
                0xffffffffa8054645                hal_UsbOpen
                0xffffffffa8054665                hal_UsbRecv
                0xffffffffa80546bd                musb_g_tx
                0xffffffffa8054779                hal_UsbSend
                0xffffffffa8054855                musb_g_rx
                0xffffffffa8054aed                BAL_SysUSBDeviceDetect
                0xffffffffa8054b45                hal_usbSpiRead
                0xffffffffa8054b8d                hal_UsbRoleDet
                0xffffffffa8054ccd                musb_notify_conn_msg
                0xffffffffa8054cf5                hal_UsbIrqHandler
                0xffffffffa8055875                musb_host_packet_rx
                0xffffffffa80558a1                hal_musb_host_connect
                0xffffffffa80558ad                hal_musb_host_disconnect
                0xffffffffa8055909                RDA_UsbCoreInit
                0xffffffffa805597d                RDA_UsbHostInit
                0xffffffffa80559d9                RDAUsb_OpenPipe
                0xffffffffa8055ad5                RDA_UsbReset
                0xffffffffa8055b49                RDAUsb_ControlTransfer
                0xffffffffa8055c01                RDAUsb_BulkTransfer
                0xffffffffa8055c6d                musb_host_tx_int
                0xffffffffa8055d6d                RDAUsb_GetState
                0xffffffffa8055dd5                usb_host_end0_Interrupt
                0xffffffffa8055fa9                musb_host_rx_int
                0xffffffffa8056135                hal_getAbbFirstEnablePaFlag
                0xffffffffa8056141                hal_AbbEnableUsbPhy
                0xffffffffa8056145                hal_AudSetVoiceMode
                0xffffffffa8056149                hal_abbSetPaOpenMode
                0xffffffffa805614d                hal_AudEnableCodecDsp
                0xffffffffa8056151                hal_AudForceDcdc4ClockOn
                0xffffffffa8056155                hal_AudSetCodecMode
                0xffffffffa8056159                hal_AudDacGainDb2Val
                0xffffffffa8056171                hal_AudAdcGainDb2Val
                0xffffffffa805618d                hal_AudSetAnaVolume
                0xffffffffa80561d1                hal_AudSetMicAnaVolume
                0xffffffffa80561ed                hal_AudSetAdcVolume
                0xffffffffa805620d                hal_AudSetDacVolume
                0xffffffffa805622d                hal_AudSetFmMode
                0xffffffffa8056265                hal_abbEnableLine
                0xffffffffa805629d                hal_abbFirstEnablePa
                0xffffffffa80562d1                hal_abbPdAll
                0xffffffffa805645d                hal_AudCalibSampleRate
                0xffffffffa80564ed                hal_AudSetSampleRate
                0xffffffffa805658d                Boot_AudEnableCodecAuxPll
                0xffffffffa80565a9                hal_AudEnableCodecAuxPll
                0xffffffffa805661d                hal_abbEnablePa
                0xffffffffa8056661                hal_abbFirstEnablePaDelay
                0xffffffffa8056689                hal_AbbOpen
                0xffffffffa8056771                hal_AudSetDacAnalogVolume
                0xffffffffa805685d                hal_abbLineInMode
                0xffffffffa80568bd                hal_DbgAssert
                0xffffffffa805692c                hal_ConfigFmIo
                0xffffffffa8056934                hal_ConfigBtIo
                0xffffffffa805693c                hal_BoardSetupGeneral
                0xffffffffa8056b78                hal_BoardSetup
                0xffffffffa8056bc1                hal_DbgTrace
                0xffffffffa8056be9                hal_DbgFatalTrigger
                0xffffffffa8056c01                hal_DbgGdbHstSendEvent
                0xffffffffa8056c39                hal_GdbBreaks
                0xffffffffa8056c59                hal_GdbSendcmd
                0xffffffffa8056c7d                hal_Gdb16Step
                0xffffffffa8056ed1                hal_Gdb32Step
                0xffffffffa8057085                hal_Gdb16EndStep
                0xffffffffa80570ad                hal_Gdb32EndStep
                0xffffffffa80570cd                hal_GdbBreakPrint
                0xffffffffa8057139                hal_GdbPrepare
                0xffffffffa805719d                hal_GdbLoop
                0xffffffffa80574dd                hal_GdbException
                0xffffffffa8057555                hal_GdbIrqPage
                0xffffffffa80575f5                hal_GdbIrqDebug
                0xffffffffa805763d                hal_GdbBreakRaise
                0xffffffffa80576a9                hal_GdbBreakSoftBreakPoint
                0xffffffffa80576fd                hal_GdbBreakBreakPoint
                0xffffffffa805773d                hal_GdbBreakDivBy0
                0xffffffffa80577b9                hal_GpioInit
                0xffffffffa80577bd                hal_GpioResetIrq
                0xffffffffa80577e5                hal_GpioIrqSetMask
                0xffffffffa80578bd                hal_GpioAltFuncConfig
                0xffffffffa8057935                hal_GpioUpOrDn
                0xffffffffa805797d                hal_GpioSetPinMux
                0xffffffffa80579a5                hal_GpioIrqHandler
                0xffffffffa80579ed                hal_GpioClr
                0xffffffffa8057a41                hal_GpioSet
                0xffffffffa8057aa9                hal_GpioGet
                0xffffffffa8057b0d                hal_GpioSetOut
                0xffffffffa8057b71                hal_GpioOpen
                0xffffffffa8057c65                hal_GpioIrqConfig
                0xffffffffa8057cd9                hal_HstWakeup
                0xffffffffa8057cf1                hal_HstSleep
                0xffffffffa8057d09                hal_HstRamClientIrq
                0xffffffffa8057d6d                hal_IspiCsActivate
                0xffffffffa8057d91                hal_IspiCsDeactivate
                0xffffffffa8057dbd                hal_IspiUpdateDivider
                0xffffffffa8057dfd                hal_IspiGetData
                0xffffffffa8057e35                hal_IspiTxFinished
                0xffffffffa8057e45                hal_IspiTxFifoAvail
                0xffffffffa8057e55                hal_IspiSendData
                0xffffffffa8057e8d                hal_IspiOpen
                0xffffffffa8057ee9                hal_LpsOpen
                0xffffffffa8057f35                hal_LpsSetCallback
                0xffffffffa8057f41                hal_LpsIrqHandler
                0xffffffffa8057f7d                hal_LpsClockSysChangeAllowed
                0xffffffffa8057fa9                hal_MapEngineOpen
                0xffffffffa8057fcd                hal_MapEngineRegisterModule
                0xffffffffa8057fe9                musb_select_ep
                0xffffffffa8058001                musb_write_fifo_ram
                0xffffffffa805807d                musb_read_fifo_ram
                0xffffffffa80580f9                hal_DbgPageProtectGetHitMaster
                0xffffffffa805810d                hal_DbgPageProtectGetHitAddress
                0xffffffffa8058125                hal_DbgPxtsSendTrigger
                0xffffffffa8058139                abb_SpiRegValueInit
                0xffffffffa8058155                abb_RegisterSpiRegCheckFunc
                0xffffffffa8058179                hal_AbbIspiWrite
                0xffffffffa80581b5                hal_AbbRegWrite
                0xffffffffa80581c9                hal_AbbIspiRead
                0xffffffffa8058221                hal_AbbRegRead
                0xffffffffa80582a5                hal_AllSpiRegCheck
                0xffffffffa8058349                abb_SpiRegCheck
                0xffffffffa80583c9                hal_AudVMicValid
                0xffffffffa80583d5                hal_AudPowerOn
                0xffffffffa80583e1                hal_AudPowerDown
                0xffffffffa8058411                hal_AudSetSpkCfg
                0xffffffffa805841d                hal_AudSetRcvGain
                0xffffffffa805842d                hal_AudGetPowerStatus
                0xffffffffa805843d                hal_AudGetSelCfg
                0xffffffffa805844d                hal_AudGetSpkCfg
                0xffffffffa805845d                hal_AudGetRcvGain
                0xffffffffa805846d                hal_AudRcvGainDb2Val
                0xffffffffa805848d                hal_AudHeadGainDb2Val
                0xffffffffa80584ad                hal_AudSpkGainDb2Val
                0xffffffffa80584dd                hal_AudMicGainDb2Val
                0xffffffffa80584fd                hal_AudGetHeadGain
                0xffffffffa8058519                hal_AudSetHeadGain
                0xffffffffa80585a5                hal_AudSetSelCfg
                0xffffffffa8058671                hal_AudForcePowerDown
                0xffffffffa8058691                hal_AudClose
                0xffffffffa8058741                hal_AudResetCodec
                0xffffffffa8058789                hal_AudOpen
                0xffffffffa8058919                hal_AudEarpieceDetectInit
                0xffffffffa80589a5                hal_SpiIrqHandler
                0xffffffffa8058a31                hal_UartIrqHandler
                0xffffffffa8058aa1                hal_voc_clock_enable
                0xffffffffa8058abd                hal_VocWakeup
                0xffffffffa8058b15                hal_VocGetPointer
                0xffffffffa8058b21                hal_VocGetDmaiPointer
                0xffffffffa8058b49                hal_VocDmaStart
                0xffffffffa8058bb5                hal_VocDmaDone
                0xffffffffa8058bc9                hal_VocIsClose
                0xffffffffa8058bd9                hal_VocIrqHandler
                0xffffffffa8058c39                hal_VocOpen
                0xffffffffa8058d69                hal_VocClose
                0xffffffffa8058e51                boot_IspiGetRomedCfg
                0xffffffffa8058e5d                boot_IspiGetData
                0xffffffffa8058e8d                boot_AbbIspiWrite
                0xffffffffa8058ec9                sxs_vprintf
                0xffffffffa8058ee1                hal_AifSetSideTone
                0xffffffffa8058ef1                hal_AifIrqHandler
                0xffffffffa8058f59                hal_AifPause
                0xffffffffa8058f7d                hal_AifTonePause
                0xffffffffa8058fa1                hal_AifStopRecord
                0xffffffffa8058fed                hal_AifStopPlay
                0xffffffffa8059039                hal_AifClose
                0xffffffffa80590b1                hal_AifTone
                0xffffffffa8059285                hal_AifRecordStream
                0xffffffffa8059309                hal_AifPlayStream
                0xffffffffa805937d                hal_AifOpen
                0xffffffffa805962d                hal_TimRtcSetTime
                0xffffffffa80596b1                hal_TimRtcNotProgrammed
                0xffffffffa80596c1                hal_TimRtcIrqSetMask
                0xffffffffa80596e1                hal_TimRtcAlarmIrqSetHandler
                0xffffffffa80596ed                hal_TimRtcIrqHandler
                0xffffffffa805975d                hal_TimRtcGetTime
                0xffffffffa8059849                hal_DmaIrqHandler
                0xffffffffa8059885                memset
                0xffffffffa80598f5                sxs_FsIdleHook
                0xffffffffa805990d                sxs_StartAll
                0xffffffffa8059951                main
                0xffffffffa805998d                sxs_DebugIdleHook
                0xffffffffa80599c9                sxs_TaskIdle
                0xffffffffa8059a45                sx_RegisterYourself
                0xffffffffa8059a61                sxr_EnterScSchedule
                0xffffffffa8059a71                sxr_ScheduleIdle
                0xffffffffa8059b19                sxr_ExitScSchedule
                0xffffffffa8059b99                sxr_StartTask
                0xffffffffa8059c45                sxr_TaskInit
                0xffffffffa8059c6d                sxs_IoInit
                0xffffffffa8059c89                sxs_fprintf
                0xffffffffa8059ca1                sxs_Raise
                0xffffffffa8059cf9                sxs_vprintf_flash
                0xffffffffa8059da9                sxr_ChkMutex
                0xffffffffa8059dd1                sxr_CheckMutex
                0xffffffffa8059df9                sxr_NewMutex
                0xffffffffa8059e51                sxr_MutexInit
                0xffffffffa8059ed9                sxr_NewMailBoxWithCondition
                0xffffffffa8059f59                sxr_NewSemaphore
                0xffffffffa8059fd1                sxr_NewMailBox
                0xffffffffa805a01d                sxr_SbxInit
                0xffffffffa805a20d                sxr_GetCurrentTaskId
                0xffffffffa805a22d                sxr_CheckTask
                0xffffffffa805a24d                sxr_TkSdInit
                0xffffffffa805a2dd                sxr_StartScheduling
                0xffffffffa805a329                sxr_NewTask
                0xffffffffa805a409                vsprintf
                0xffffffffa805a421                _sxr_HMalloc
                0xffffffffa805a46d                sxr_RmvMsgFromMbx
                0xffffffffa805a579                sxr_TakeSemaphore
                0xffffffffa805a5d5                sxr_ReleaseSemaphore
                0xffffffffa805a62d                strcpy
                0xffffffffa805a641                sxr_DeleteComplexTimer
                0xffffffffa805a819                sxr_DeleteTimer
                0xffffffffa805a831                _sxr_StopFunctionTimer
                0xffffffffa805a85d                sxs_StopTimer
                0xffffffffa805a8b1                sxs_StartTimer
                0xffffffffa805a901                sxr_InitTimer
                0xffffffffa805aa05                gpio_detect_earpiece
                0xffffffffa805aa09                gpio_detect_tcard
                0xffffffffa805aa41                gpio_CardDetectPowerOn
                0xffffffffa805aa6d                gpio_detect_linein
                0xffffffffa805aaf9                gpio_detect_tcard_conv_to_sd
                0xffffffffa805ab49                gpio_CardDetectTimerHandler
                0xffffffffa805abb5                gpio_initialise
                0xffffffffa805abd5                gpio_ConvDetFunction
                0xffffffffa805ac41                gpio_ConvSdFunction
                0xffffffffa805aca5                gpio_config
                0xffffffffa805acbd                gpio_SetMute
                0xffffffffa805ad25                gpio_Keyinit
                0xffffffffa805ae61                gpio_key_timeout
                0xffffffffa805ae71                aud_SetCurOutputDevice
                0xffffffffa805ae8d                aud_GetCurOutputDevice
                0xffffffffa805aef1                aud_EnableEarpieceSetting
                0xffffffffa805af2d                aud_InitEarpieceSetting
                0xffffffffa805af3d                aud_GetOutAlgGainDb2Val
                0xffffffffa805af4d                aud_StreamRecord
                0xffffffffa805b035                aud_StreamPause
                0xffffffffa805b0d9                aud_StreamStop
                0xffffffffa805b1b1                aud_Setup
                0xffffffffa805b319                aud_StreamStart
                0xffffffffa805b66d                aud_LineinSetup
                0xffffffffa805b67d                aud_CodecCommonCalibUpdateValues
                0xffffffffa805b681                aud_CodecCommonGetLatestLevel
                0xffffffffa805b68d                aud_CodecCommonGetOutAlgGainDb2Val
                0xffffffffa805b699                aud_CodecCommonTonePause
                0xffffffffa805b815                aud_CodecCommonStreamPause
                0xffffffffa805b835                aud_CodecCommonSetConfig
                0xffffffffa805bae5                aud_CodecCommonSetup
                0xffffffffa805bf69                aud_CodecCommonTone
                0xffffffffa805c03d                aud_CodecCommonStreamRecord
                0xffffffffa805c0dd                aud_CodecCommonStreamStop
                0xffffffffa805c169                aud_CodecCommonStreamStart
                0xffffffffa805c211                rdabt_get_xcpu_msg
                0xffffffffa805c261                rdabt_clear_xcpu_busy
                0xffffffffa805c26d                rdabt_wait_btcpu_busy
                0xffffffffa805c2a5                rdabt_send_msg_to_bt
                0xffffffffa805c359                rdabt_Sharemem_Interrupt_Handle
                0xffffffffa805c38d                rdabt_antenna_off
                0xffffffffa805c3c9                rdabt_antenna_on
                0xffffffffa805c3f5                BAL_BTTaskEntry
                0xffffffffa805c4b9                rdabt_poweronphone_init
                0xffffffffa805c4bd                RDA_bt_Power_Off
                0xffffffffa805c4e5                rda_bt_power_on
                0xffffffffa805c52d                rdabt_poweron_init
                0xffffffffa805c545                mcd_GetCardSize
                0xffffffffa805c591                mcd_hal_delay
                0xffffffffa805c675                mcd_Close
                0xffffffffa805c6e9                mcd_hal_delay_sd1
                0xffffffffa805c6f9                mcd_sdmmc_Close_all_volt
                0xffffffffa805c71d                mcd_sdmmc_rst_volt
                0xffffffffa805c74d                mcd_CardDetectUpdateStatus
                0xffffffffa805c7ad                mcd_CardStatus
                0xffffffffa805c885                mcd_Read
                0xffffffffa805ca55                mcd_Open
                0xffffffffa805d231                mcd_Write
                0xffffffffa805d319                Mcd_RegisterClientDriver
                0xffffffffa805d351                Mcd_UsbHostDeInit
                0xffffffffa805d3a1                Mcd_USBHostInit
                0xffffffffa805d409                Mcd_USBHostSchOperation
                0xffffffffa805d5b9                UsbDeviceAttachDriver
                0xffffffffa805d629                VendorCmdCallBack
                0xffffffffa805d635                BulkTransferCompleteCallBack
                0xffffffffa805d641                USB_OpenPipe
                0xffffffffa805d65d                USB_ResetDefaultEndpoint
                0xffffffffa805d671                USB_ResetEndpoint
                0xffffffffa805d685                USB_SetInterface
                0xffffffffa805d6dd                USB_SetConfiguration
                0xffffffffa805d729                USB_SetAddress
                0xffffffffa805d781                USB_HcdInit
                0xffffffffa805d7a9                USB_BulkOrInterruptTransfer
                0xffffffffa805d8b9                USB_VendorTransfer
                0xffffffffa805d965                USB_GetDescriptor
                0xffffffffa805dad1                USB_HcdDeinit
                0xffffffffa805db41                memd_FlashSetLayout
                0xffffffffa805db71                memd_FlashRomulatorSetRamMode
                0xffffffffa805db99                pmd_GetScreenAntiFlickerVolt
                0xffffffffa805dbb1                pmd_TsdTscEnabled
                0xffffffffa805dbc1                tsd_IsKeyPowerOn
                0xffffffffa805dbd9                pmd_SpiRegValueInit
                0xffffffffa805dbf5                pmd_GetEarpieceGpadcChannel
                0xffffffffa805dc05                pmd_GpadcChannelEnabled
                0xffffffffa805dc29                pmd_EnableClk4mAvdd3InLpMode
                0xffffffffa805dc91                pmd_RegisterSpiRegCheckFunc
                0xffffffffa805dcb5                pmd_SpiCsNonblockingActivate
                0xffffffffa805dd15                pmd_OpalCsDeactivate
                0xffffffffa805dd49                tsd_KeyOnOffStateAtPowerOn
                0xffffffffa805de49                pmd_OpalCsBlockingActivate
                0xffffffffa805dead                pmd_OpalSpiWrite
                0xffffffffa805df01                pmd_SetVIO2P8Voltage
                0xffffffffa805df51                pmd_InitCoreVoltage
                0xffffffffa805dfb9                pmd_RDAWrite
                0xffffffffa805e091                pmd_ResetTouch
                0xffffffffa805e0e5                pmd_SpeakerPaRestoreMode
                0xffffffffa805e189                pmd_EnableScreenAntiFlicker
                0xffffffffa805e34d                pmd_EnableOpalLdo
                0xffffffffa805e4c9                pmd_SetLevel
                0xffffffffa805e7e9                pmd_TsdEnableTsc
                0xffffffffa805e835                pmd_InitSpeakerPa
                0xffffffffa805e871                pmd_RegHpDetectSettingSet
                0xffffffffa805e8b5                pmd_RegIrqSettingClr
                0xffffffffa805e8f1                pmd_OpalSpiRead
                0xffffffffa805e9a1                pmd_SpiRegCheck
                0xffffffffa805ea21                pmd_SoftStart
                0xffffffffa805ecf1                pmd_InitTouchScreen
                0xffffffffa805ed51                pmd_RDARead
                0xffffffffa805ed99                pmd_InitXtal32K
                0xffffffffa805ee11                pmd_OpenI2cTrace
                0xffffffffa805ef09                pmd_RegIrqSettingSet
                0xffffffffa805ef51                pmd_IrqHandler
                0xffffffffa805efa5                pmd_TsdClearTouchIrq
                0xffffffffa805efb9                pmd_TsdEnableIrq
                0xffffffffa805f009                pmd_InitRdaPmu
                0xffffffffa805f13d                pmd_Open
                0xffffffffa805f401                pmd_SetHighActivity
                0xffffffffa805f411                pmd_BatteryLevelToPercent
                0xffffffffa805f44d                pmd_GetChargerStatus
                0xffffffffa805f459                pmd_GetPowerOnVolt
                0xffffffffa805f475                pmd_GetPowerDownVolt
                0xffffffffa805f525                pmd_ChargerSetBgLpMode
                0xffffffffa805f5d5                pmd_GetEncryptUid
                0xffffffffa805f611                pmd_keyCalibValue
                0xffffffffa805f679                pmd_GetChargerHwStatus
                0xffffffffa805f6b9                pmd_SetChargeCurrent
                0xffffffffa805f751                pmd_ChargerChargingState
                0xffffffffa805f929                pmd_GetGpadcBatteryLevel
                0xffffffffa805f98d                pmd_GetBatteryLevel
                0xffffffffa805fa09                pmd_GetGpadcChargerLevel
                0xffffffffa805fa39                pmd_ChargerManager
                0xffffffffa805fcc5                pmd_DcOnHandler
                0xffffffffa805fce9                pmd_SetChargerStatusHandler
                0xffffffffa805fd75                pmd_InitCharger
                0xffffffffa805ff49                pmd_RestoreChargerAtPowerOff
                0xffffffffa805ff75                rfd_XcvReadChipId
                0xffffffffa805ff99                tsd_GetKeyIndex
                0xffffffffa8060059                sort_data
                0xffffffffa80600b9                get_keymostFrequent
                0xffffffffa8060121                tsd_GetKeyIrqState
                0xffffffffa8060135                tsd_GetKeyRegValue
                0xffffffffa8060149                tsd_GetButtonIndex
                0xffffffffa8060311                tsd_EnableHostPenIrq
                0xffffffffa8060349                tsd_Open
                0xffffffffa80603c9                tsd_KeyOpen
                0xffffffffa8060401                tsd_ClearTouchIrq
                0xffffffffa806043d                tsd_Debounce
                0xffffffffa8060755                DRV_CloseUSBDisk
                0xffffffffa8060759                DRV_FlushUSBDisk
                0xffffffffa806075d                DRV_DeactiveUSBDisk
                0xffffffffa8060775                DRV_ActiveUSBDisk
                0xffffffffa80607a9                DRV_GetDevInfoUSBDisk
                0xffffffffa80608ed                DRV_WriteUSBDisk
                0xffffffffa8060909                DRV_ReadUSBDisk
                0xffffffffa8060925                DRV_OpenUSBDisk
                0xffffffffa806095d                UsbDiskDetach
                0xffffffffa806099d                UsbDiskAttach
                0xffffffffa8060a29                PM_SetBattery
                0xffffffffa8060c99                PM_GetBatteryInfo
                0xffffffffa8060cf9                pm_BattChargeRemind
                0xffffffffa8060e11                pm_ChargerHandler
                0xffffffffa8060e31                pm_BatteryInit
                0xffffffffa8060efd                pm_BatteryMonitorProc
                0xffffffffa8061081                DM_AudInit
                0xffffffffa8061091                Delay_for_audio
                0xffffffffa80610b5                Speaker_Close
                0xffffffffa80610d9                Speaker_Open
                0xffffffffa80610fd                Mic_close
                0xffffffffa8061121                Mic_open
                0xffffffffa8061145                DM_GetSPKMuteFlag
                0xffffffffa8061151                DM_SetAudioVolume
                0xffffffffa8061171                DM_StopAudioEX
                0xffffffffa8061201                DM_SetAudioModeEX
                0xffffffffa80612e1                dm_sysMSleep
                0xffffffffa80612f1                DM_StartAudioEX
                0xffffffffa80613c9                DM_SetAudioVolumeEX
                0xffffffffa8061489                DM_SetMicGainEX
                0xffffffffa80614d9                DM_WaitAudOperResult
                0xffffffffa8061561                DM_GetAudSyncSlot
                0xffffffffa80615cd                DM_SetAudioMode
                0xffffffffa806160d                DSM_GetDevType
                0xffffffffa8061639                DSM_IsRemoveableDev
                0xffffffffa8061659                DSM_GetDeviceInfo
                0xffffffffa806168d                DSM_SemUp
                0xffffffffa80616a9                DSM_SemInit
                0xffffffffa80616c1                DSM_SemDown
                0xffffffffa80616ed                DSM_GetUserDataBackUp
                0xffffffffa8061775                DSM_ReadFlashUserData
                0xffffffffa80618fd                DSM_GetUserData
                0xffffffffa8061999                DSM_UserDataNeedUpdate
                0xffffffffa8061b49                DSM_InitUserData
                0xffffffffa8061b79                DSM_CreatUserData
                0xffffffffa8061bb5                DSM_ReadUserData
                0xffffffffa8061c1d                DSM_FlashErase
                0xffffffffa8061c35                DSM_FlashWrite
                0xffffffffa8061c4d                DSM_WriteUserData
                0xffffffffa8061eed                DSM_GetFsRootDevName
                0xffffffffa8061f35                DSM_DevNr2Name
                0xffffffffa8061f71                DSM_DevName2DevNo
                0xffffffffa8061fbd                DSM_DeactiveDevice
                0xffffffffa8061ff5                DSM_DevInit
                0xffffffffa806227d                DSM_UpgradeStructGetValid
                0xffffffffa80622bd                DSM_Program_Packet
                0xffffffffa806234d                DSM_Program_Fist_Part_Lod
                0xffffffffa80624ed                DSM_Program_Fist_Part
                0xffffffffa80624fd                DSM_TFlash_Upgrade_Lod
                0xffffffffa80627c5                DSM_TFlash_Upgrade
                0xffffffffa80627d5                scsiSend
                0xffffffffa80628a1                umss_GetUsbVirtualStatus
                0xffffffffa80628ad                umss_ResetUsbVirtualStatus
                0xffffffffa80628bd                umss_Close
                0xffffffffa8062949                umss_AddPart
                0xffffffffa8062a2d                umss_Open
                0xffffffffa8062b41                boSendCsw
                0xffffffffa8062c29                scsiRecv
                0xffffffffa8062d89                umss_TransportEventProcess
                0xffffffffa8063701                uctls_NewDeviceDescriptor
                0xffffffffa806375d                uctls_NewConfigDescriptor
                0xffffffffa8063795                uctls_CleanInterfaceListDescriptor
                0xffffffffa80637f1                uctls_CleanDeviceDescriptor
                0xffffffffa8063849                uctls_NewInterfaceDescriptor
                0xffffffffa80638a1                uctls_NewEpDescriptor
                0xffffffffa80638f5                uctls_AddInterface
                0xffffffffa8063911                uctls_AllocateEndPoint
                0xffffffffa8063941                uctls_Close
                0xffffffffa8063a09                uctls_ChargerStatus
                0xffffffffa8063aa1                uctls_Open
                0xffffffffa8063b41                ScsiRequestSense
                0xffffffffa8063b99                ScsiStartStopUnit
                0xffffffffa8063c11                ScsiGetSenseData
                0xffffffffa8063d25                ScsiReadWrite
                0xffffffffa8063e19                ScsiInquiry
                0xffffffffa8063ed1                ScsiTestUnitReady
                0xffffffffa8063f29                ScsiRWSG
                0xffffffffa8063f79                ScsiReadCapacity
                0xffffffffa8064079                ScsiUnitAttention
                0xffffffffa8064115                GetMediumInfo
                0xffffffffa80641bd                ScsiUsbDiskDetach
                0xffffffffa80641e1                ScsiUsbDiskAttach
                0xffffffffa8064265                UsbControlComplete
                0xffffffffa8064271                ParseUsbDescriptors
                0xffffffffa80642b5                UsbDiskTransportDeinit
                0xffffffffa80642cd                UsbsDataTransfer
                0xffffffffa806431d                SetUsbInterface
                0xffffffffa806444d                UsbDiskTransportInit
                0xffffffffa8064509                SetDWORD
                0xffffffffa806451d                SetWORD
                0xffffffffa8064531                GetDWORD
                0xffffffffa8064551                BOT_ResetAllPipes
                0xffffffffa8064581                BOT_MassStorageReset
                0xffffffffa8064605                BOT_ResetRecovery
                0xffffffffa806463d                BOT_DataTransfer
                0xffffffffa806494d                CBIT_StatusTransport
                0xffffffffa8064a19                CBIT_ResetAllPipes
                0xffffffffa8064a59                CBIT_ResetRecovery
                0xffffffffa8064a99                CBIT_CommandTransport
                0xffffffffa8064b31                CBIT_DataTransfer
                0xffffffffa8064c4d                findchr
                0xffffffffa8064c69                uart_send_data_to_debug_host
                0xffffffffa8064cf1                ProcessLineEditingChar
                0xffffffffa8064d51                uart_ClearBuffer
                0xffffffffa8064d79                AT_UartOpen
                0xffffffffa8064dc5                DiscardSuffixLF
                0xffffffffa8064e05                uart_SendDataToTe
                0xffffffffa8064e3d                AT_UartInit
                0xffffffffa8064e91                SendCmdToATTask
                0xffffffffa8065049                uart_check_uart_command
                0xffffffffa80650b9                AT_OutputText
                0xffffffffa80650e9                MMC_SCOGetRXBuffer
                0xffffffffa80650fd                BTSco_GetAudioCfg
                0xffffffffa8065109                BTSco_SetMsdfReloadFlag
                0xffffffffa8065115                MMC_SCOSendData
                0xffffffffa8065165                MMC_SCOReceiveData
                0xffffffffa80654a1                BTSco_Stop
                0xffffffffa80655d1                BTSco_Start
                0xffffffffa8065abd                BTSco_txhandle_end
                0xffffffffa8065ad9                BTSco_txhandle_half
                0xffffffffa8065af5                BTSco_Setup
                0xffffffffa8065f4d                CvsdEnc
                0xffffffffa8066049                CvsdDecNew
                0xffffffffa8066125                CVSDEncode
                0xffffffffa80664a9                CVSDDecode
                0xffffffffa806683d                CvsdInit
                0xffffffffa8066a45                GetMCITaskHandle
                0xffffffffa8066ab1                MCI_LcdSizeSet
                0xffffffffa8066ad1                MCI_VideoClose
                0xffffffffa8066ad5                MCI_VideoGetInfo
                0xffffffffa8066add                MCI_AudioRecordFinished
                0xffffffffa8066b05                MCI_StartBTSCO
                0xffffffffa8066b51                MCI_PlayBTStream
                0xffffffffa8066bf1                MCI_PlayInternalAudio
                0xffffffffa8066cc9                MCI_FmStop
                0xffffffffa8066d05                MCI_FmPlay
                0xffffffffa8066d7d                MCI_AudioRecordStop
                0xffffffffa8066d9d                MCI_AudioRecordResume
                0xffffffffa8066db9                MCI_AudioRecordPause
                0xffffffffa8066dd9                MCI_AudioRecordStart
                0xffffffffa8066e35                MCI_AudioGetFileInformation
                0xffffffffa8066e81                MCI_AudioSetEQ
                0xffffffffa8066e91                MCI_AudioGetPlayInformation
                0xffffffffa8066eb5                MCI_AudioStop
                0xffffffffa8066f15                MCI_StopInternalAudio
                0xffffffffa8066f25                MCI_AudioResume
                0xffffffffa8066f49                MCI_AudioGetDurationTime
                0xffffffffa8066f5d                MCI_AudioPause
                0xffffffffa8066f7d                MCI_AudioPlay
                0xffffffffa8066ff9                MCI_AudioFinished
                0xffffffffa8067035                mmc_RecordUninstall
                0xffffffffa8067049                mmc_SetCurrMode
                0xffffffffa8067055                mmc_GetCurrMode
                0xffffffffa8067061                mmc_SendEvent
                0xffffffffa8067081                mmc_AudioInstall
                0xffffffffa8067239                mmc_EntryMode
                0xffffffffa8067271                mmc_SendApiMsgReq
                0xffffffffa80672c5                mmc_AduioUninstall
                0xffffffffa80672f1                mmc_ExitMode
                0xffffffffa8067325                mmc_ApiMsgDo
                0xffffffffa8067401                BAL_MMCTask
                0xffffffffa806746d                codec_get_id
                0xffffffffa8067591                wav_codec_get_id
                0xffffffffa8067651                adpcm_decode_init
                0xffffffffa806790d                bytestream_get_le16
                0xffffffffa8067925                bytestream_get_be16
                0xffffffffa806793d                bytestream_get_le32
                0xffffffffa806795d                bytestream_get_be32
                0xffffffffa806797d                adpcm_decode_frame
                0xffffffffa8068e7d                mmc_BuffTagSize
                0xffffffffa8068f3d                mmc_aud_ClearFileHandle
                0xffffffffa8068f6d                mmc_aud_SetupFileHandle
                0xffffffffa8068fad                mmc_BuffInit
                0xffffffffa806900d                mmc_aud_FileRead
                0xffffffffa8069041                mmc_aud_FileSeek
                0xffffffffa8069069                mmc_aud_GetFileSize
                0xffffffffa8069165                Audio_MpegPrepareNextFrame
                0xffffffffa8069189                Audio_MpegPlayLeftData
                0xffffffffa8069199                Audio_MpegGetID3
                0xffffffffa806919d                Audio_MpegGetPlayInformation
                0xffffffffa8069259                MMC_MpegReceiveA2dpData
                0xffffffffa80692c5                MMC_AudioDecOpen
                0xffffffffa8069529                MMC_MpegPcmOutStart
                0xffffffffa80696c9                MMC_AUDIODecVoc
                0xffffffffa8069d39                MMC_AudioVocISR
                0xffffffffa8069d51                MMC_AUDIODecClose
                0xffffffffa8069db5                Audio_MpegGetFileInformation
                0xffffffffa806a0d9                Audio_MpegResume
                0xffffffffa806a169                Audio_MpegPause
                0xffffffffa806a1a9                Audio_MpegStop
                0xffffffffa806a1e5                Audio_MpegPlay
                0xffffffffa806a2f5                MMC_AUDIODecPcm
                0xffffffffa806a3f5                Audio_MpegUserMsg
                0xffffffffa806a599                AudioHalfPcmISR
                0xffffffffa806a619                AudioEndPcmISR
                0xffffffffa806a69d                Audio_SBCResume
                0xffffffffa806a6a1                Audio_SBCGetID3
                0xffffffffa806a6a5                Audio_SBCGetPlayInformation
                0xffffffffa806a6c9                MMC_AudioSBCDecClose
                0xffffffffa806a73d                Audio_SBCPause
                0xffffffffa806a755                Audio_SBCStop
                0xffffffffa806a76d                Audio_SBCPrepareNextFrame
                0xffffffffa806a7c5                MMC_AudioCleanA2dpData
                0xffffffffa806a815                AudioSBCCheckIsMute
                0xffffffffa806a8a1                Audio_Change_SampleRate
                0xffffffffa806a8fd                MMC_AudioAutoCalibSameple
                0xffffffffa806a98d                MMC_AudioSBCDecPcm
                0xffffffffa806aa25                MMC_AudioReceiveA2dpData
                0xffffffffa806ab21                MMC_AudioSBCDecOpen
                0xffffffffa806ac5d                Audio_SBCPlay
                0xffffffffa806acc5                MMC_SBCPcmOutStart
                0xffffffffa806ad85                MMC_AudioSBCDecVoc
                0xffffffffa806b021                Audio_SBCUserMsg
                0xffffffffa806b0c9                MMC_AudioSBCEndPcmISR
                0xffffffffa806b0ed                MMC_AudioSBCHalfPcmISR
                0xffffffffa806b111                MMC_AudioSBCVocISR
                0xffffffffa806b129                BTSco_AudCallStarted
                0xffffffffa806b135                BTSco_AudCallReset
                0xffffffffa806b141                BTSco_AudFileHandle
                0xffffffffa806b14d                Audio_SCOPause
                0xffffffffa806b151                Audio_SCOResume
                0xffffffffa806b155                Audio_SCOGetID3
                0xffffffffa806b159                Audio_SCOGetPlayInformation
                0xffffffffa806b161                Audio_SCOUserMsg
                0xffffffffa806b165                BTSco_AudCallStop
                0xffffffffa806b181                Audio_SCOStop
                0xffffffffa806b195                BTSco_AudCallStart
                0xffffffffa806b1cd                Audio_SCOPlay
                0xffffffffa806b201                MCI_SetSideTone
                0xffffffffa806b215                Audio_ToneResume
                0xffffffffa806b219                Audio_ToneGetID3
                0xffffffffa806b21d                Audio_ToneGetPlayInformation
                0xffffffffa806b225                genrate_sin_tone
                0xffffffffa806b51d                MCI_ClearSideTone
                0xffffffffa806b549                MCI_MergeSideTone
                0xffffffffa806b8d1                MCI_PlaySideTone
                0xffffffffa806b929                MMC_AudioToneDecClose
                0xffffffffa806b951                Audio_TonePause
                0xffffffffa806b969                Audio_ToneStop
                0xffffffffa806b98d                MMC_AudioToneDecPcm
                0xffffffffa806bcd1                Audio_ToneUserMsg
                0xffffffffa806bd2d                MMC_TonePcmOutStart
                0xffffffffa806bda1                Audio_TonePlay
                0xffffffffa806be19                MMC_AudioToneEndPcmISR
                0xffffffffa806be59                MMC_AudioToneHalfPcmISR
                0xffffffffa806be99                Audio_WavPlayLeftData
                0xffffffffa806bea9                Audio_WavGetID3
                0xffffffffa806bead                Audio_WavGetPlayInformation
                0xffffffffa806bf0d                MMC_AudioWavDecClose
                0xffffffffa806bf61                Audio_WavPause
                0xffffffffa806bf7d                Audio_WavStop
                0xffffffffa806bf95                MMC_AudioWavDecPcm
                0xffffffffa806c219                Audio_WavUserMsg
                0xffffffffa806c279                MMC_AudioWavEndPcmISR
                0xffffffffa806c2e1                MMC_AudioWavHalfPcmISR
                0xffffffffa806c349                MMC_WavPcmOutStart
                0xffffffffa806c465                MMC_WavHeaderParse
                0xffffffffa806c851                MMC_AudioWavDecOpen
                0xffffffffa806ca89                Audio_WavResume
                0xffffffffa806caed                Audio_WavPlay
                0xffffffffa806cb7d                MMC_WavGetFileInformation
                0xffffffffa806cc51                Audio_WMAPrepareNextFrame
                0xffffffffa806cc79                Audio_WmaGetID3
                0xffffffffa806cc7d                Audio_WmaGetPlayInformation
                0xffffffffa806ccbd                Audio_WMAGetFileInformation
                0xffffffffa806cd81                MMC_AudioWMADecOpen
                0xffffffffa806cfa1                MMC_WMAPcmOutStart
                0xffffffffa806d091                MMC_AudioWMADecVoc
                0xffffffffa806d1c5                MMC_AudioWMADecClose
                0xffffffffa806d235                Audio_WmaResume
                0xffffffffa806d26d                Audio_WmaPause
                0xffffffffa806d2c5                Audio_WmaStop
                0xffffffffa806d2e9                Audio_WmaPlay
                0xffffffffa806d369                MMC_AudioWMADecPcm
                0xffffffffa806d3f5                Audio_WmaUserMsg
                0xffffffffa806d481                MMC_AudioWMAEndPcmISR
                0xffffffffa806d4c5                MMC_AudioWMAHalfPcmISR
                0xffffffffa806d509                MMC_AudioWMAVocISR
                0xffffffffa806d521                mmc_MemFreeAll
                0xffffffffa806d561                mmc_MemMalloc
                0xffffffffa806d5b5                vpp_Mp3DecSetAudioParamReloadFlag
                0xffffffffa806d5c1                vpp_MpegSetKalaokMode
                0xffffffffa806d5f5                vpp_DecSetDrcmodeParam
                0xffffffffa806d6a1                vpp_AudioJpegDecStatus
                0xffffffffa806d6c5                vpp_AudioJpegDecCalcEqCoef
                0xffffffffa806d745                vpp_Mp3DecSetEqParam
                0xffffffffa806d7e5                vpp_AudioJpegDecScheduleOneFrame
                0xffffffffa806da65                vpp_AudioJpegDecClose
                0xffffffffa806da95                vpp_AudioJpegDecOpen
                0xffffffffa806dc29                vpp_SBCDecSetAudioParamReloadFlag
                0xffffffffa806dc35                vpp_SBCDecDetectMute
                0xffffffffa806dc4d                vpp_SBCDecSetDetectMuteThd
                0xffffffffa806dc8d                vpp_SBCDecSampleCoverDisable
                0xffffffffa806dca5                vpp_SBCDecStatus
                0xffffffffa806dce5                vpp_SBCSetKalaokMode
                0xffffffffa806dd05                vpp_SBCSetBandInfoEnable
                0xffffffffa806dd25                vpp_SBCDecCheckOutPcmAddr
                0xffffffffa806dd71                vpp_SBCDecSetConstEqParam
                0xffffffffa806df41                vpp_SBCDecSetEqParam
                0xffffffffa806dfd9                vpp_SBCDecScheduleOneFrame
                0xffffffffa806e265                vpp_SBCSetMixMode
                0xffffffffa806e2c1                vpp_SBCDecClose
                0xffffffffa806e2d1                vpp_SBCDecOpen
                0xffffffffa806e45d                vpp_SpeechBTGetRxPcmBuffer
                0xffffffffa806e469                vpp_SpeechBTGetTxPcmBuffer
                0xffffffffa806e475                vpp_SpeechBTGetBluetoothRxPcmBuffer
                0xffffffffa806e481                vpp_SpeechBTGetBluetoothTxPcmBuffer
                0xffffffffa806e48d                vpp_SpeechBTInAlgGainDb2Val
                0xffffffffa806e4d9                vpp_SpeechBTOutAlgGainDb2Val
                0xffffffffa806e4f9                vpp_SpeechScheduleOneFrame
                0xffffffffa806e519                vpp_SpeechBTSetMSDFPara
                0xffffffffa806e545                vpp_SpeechBTMSDFReload
                0xffffffffa806e55d                vpp_SpeechBTSetWebRtcAgcReloadFlag
                0xffffffffa806e595                vpp_SpeechBTSetWebRtcAgcParaRx
                0xffffffffa806e5e1                vpp_SpeechBTSetWebRtcAgcParaTx
                0xffffffffa806e62d                vpp_SpeechBTSetWebRtcAgcParaAll
                0xffffffffa806e64d                vpp_SpeechBTSetNoiseSuppressParaRX
                0xffffffffa806e6a9                vpp_SpeechBTSetNoiseSuppressParaTX
                0xffffffffa806e705                vpp_SpeechBTSetNoiseSuppressParaAll
                0xffffffffa806e725                vpp_SpeechBTSetHpfPara
                0xffffffffa806e775                vpp_SpeechBTSetProcessMicEnableFlag
                0xffffffffa806e795                vpp_SpeechBTSetFilterPara
                0xffffffffa806e7f9                vpp_SpeechBTSetAecAllPara
                0xffffffffa806e9c5                vpp_SpeechBTSetAecPara
                0xffffffffa806ea75                vpp_SpeechBTSetInAlgGain
                0xffffffffa806eacd                vpp_SpeechBTSetNonClipParaTX
                0xffffffffa806eb0d                vpp_SpeechBTSetAecEnableFlag
                0xffffffffa806eb3d                vpp_SpeechBTSetOutAlgGain
                0xffffffffa806eba1                vpp_SpeechBTSetNonClipParaRX
                0xffffffffa806ebe1                vpp_SpeechBTSetNonClipParaAll
                0xffffffffa806ec01                vpp_SpeechBTReset
                0xffffffffa806ec1d                vpp_SpeechBTSetScaleDigitalGainPara
                0xffffffffa806ec71                vpp_SpeechBTSetEQPara
                0xffffffffa806ed01                vpp_SpeechBTAudioCfg
                0xffffffffa806ed45                vpp_SpeechBTClose
                0xffffffffa806ed61                vpp_SpeechBTOpen
                0xffffffffa806f2b1                vpp_SpeechInitBuffer
                0xffffffffa806f355                vpp_WmaDecScheduleGetFile_Point_Addr
                0xffffffffa806f36d                vpp_WmaDecStatus
                0xffffffffa806f3bd                vpp_WmaSetBandInfoEnable
                0xffffffffa806f3dd                vpp_WmaDecScheduleSetFile_Point_Addr
                0xffffffffa806f40d                vpp_WmaDecScheduleOneFrame_For_Datafill
                0xffffffffa806f431                vpp_WmaStart_Voc
                0xffffffffa806f441                vpp_WmaDecScheduleOneFrame
                0xffffffffa806f4d9                vpp_WmaDecClose
                0xffffffffa806f4f1                vpp_WmaDecOpen
                0xffffffffa806f80d                vpp_WmaGetInfo
                0xffffffffa806f86d                LOG2_VOC
                0xffffffffa806f881                msaudioGetSamplePerFrame
                0xffffffffa806f935                WMAFileGetInfo
                0xffffffffa806f951                WMADecoderInit
                0xffffffffa8070365                WMAFileDecodeInit
                0xffffffffa80704e9                my_memcmp
                0xffffffffa8070521                HnsQWORDtoMsDWORD
                0xffffffffa807055d                WMAFileCBGetData
                0xffffffffa8070599                WMA_LoadLicenseStoreObject
                0xffffffffa807061d                WMA_LoadContentDescriptionObject
                0xffffffffa8070691                WMA_LoadEncryptionObject
                0xffffffffa8070851                WMA_LoadAudioObject
                0xffffffffa8070b49                WMA_LoadPropertiesObject
                0xffffffffa8070bed                WMA_LoadHeaderObject
                0xffffffffa8070cd5                WMA_LoadObjectHeader
                0xffffffffa8070db1                WMA_ParseAsfHeader
                0xffffffffa8070ec1                MCI_AudioRecordGetTime
                0xffffffffa8070f0d                Mmc_sndRecResume
                0xffffffffa8070f29                Mmc_sndRecPause
                0xffffffffa8070f45                sndrec_endHandler
                0xffffffffa8070f5d                sndrec_halfHandler
                0xffffffffa8070f75                sndrec_DrvHandler
                0xffffffffa8070f9d                Mmc_MicStartRecord
                0xffffffffa8071061                Mmc_sndRecStart
                0xffffffffa8071155                sndRec_writeWaveHeader
                0xffffffffa8071209                Mmc_sndRecStop
                0xffffffffa8071269                sndRec_writeWaveData
                0xffffffffa8071299                sndRec_msgHandle
                0xffffffffa8071369                get_coeffs_skip
                0xffffffffa807139d                get_coeffs_point
                0xffffffffa80713a9                get_coeffs_highShelf
                0xffffffffa8071831                get_coeffs_lowShelf
                0xffffffffa8071cb9                get_coeffs_peakingEQ
                0xffffffffa8071f61                get_coeffs_HPF
                0xffffffffa80721e1                get_coeffs_LPF
                0xffffffffa8072459                get_coeffs_for_one_band
                0xffffffffa8072501                calc_coeffs_for_call_voc
                0xffffffffa8072599                calc_coeffs_for_voc
                0xffffffffa8072699                apfs_GetDurationTime
                0xffffffffa8072771                apfs_GetFileInformation
                0xffffffffa8072971                vpp_SpeechInAlgGainDb2Val
                0xffffffffa8072b61                ars_Pause
                0xffffffffa8072b7d                ars_Stop
                0xffffffffa8072bf9                ars_Record
                0xffffffffa8072d7d                LILY_AudioSetEQ
                0xffffffffa8072ddd                LILY_AudioGetPlayInformation
                0xffffffffa8072e09                LILY_AudioStop
                0xffffffffa8072e2d                LILY_AudioResume
                0xffffffffa8072e55                LILY_AudioPause
                0xffffffffa8072e75                LILY_AudioPlay
                0xffffffffa8072ed1                id3_tag_get_unsync_uint32
                0xffffffffa8072ef9                id3_tag_get_uint32
                0xffffffffa8072f15                id3_tag_parse_v2_tag_header
                0xffffffffa8072f95                id3_tag_reverse_unsync_process
                0xffffffffa8072fc1                id3_tag_parse_v2_tag_extended_header
                0xffffffffa8073065                id3_tag_match_v2_frame_id_from_list
                0xffffffffa80730ad                id3_tag_parse_v2_frame_data
                0xffffffffa8073141                id3_tag_parse_v2_frame_header
                0xffffffffa8073249                audio_input_stream_read
                0xffffffffa80732b5                id3_tag_parse_v1_tag
                0xffffffffa807331d                audio_input_stream_get_data_size
                0xffffffffa807332d                audio_input_stream_seek
                0xffffffffa8073355                id3_tag_parse_v2_tag
                0xffffffffa8073539                audio_file_input_stream_alloc
                0xffffffffa8073579                id3_tag_parse
                0xffffffffa80735d9                lily_getModuleState
                0xffffffffa80735f5                lily_getLilyActiveState
                0xffffffffa8073609                checkModuleConflict
                0xffffffffa80736b5                lily_changeToState
                0xffffffffa80736e5                lily_exitModule
                0xffffffffa8073721                pow
                0xffffffffa8074131                powi
                0xffffffffa8074401                cos
                0xffffffffa8074651                sin
                0xffffffffa80748b1                sqrt
                0xffffffffa80749d9                fabs
                0xffffffffa8074a21                frexp
                0xffffffffa8074aa9                ldexp
                0xffffffffa8074bb1                floor
                0xffffffffa8074ca1                signbit
                0xffffffffa8074ca9                isnan
                0xffffffffa8074cd1                isfinite
                0xffffffffa8074ce5                mtherr
                0xffffffffa8074cf1                polevl
                0xffffffffa8074d31                p1evl
                0xffffffffa8074d75                BAL_TaskInit
                0xffffffffa8074e89                BAL_Initalise
                0xffffffffa8074edd                gui_load_resource
                0xffffffffa8074f59                gui_get_audio
                0xffffffffa8075019                gui_get_led_pattern
                0xffffffffa80750a9                SearchIndexinList
                0xffffffffa8075119                gui_convert_unicode_data
                0xffffffffa80751f9                gui_unicode2local
                0xffffffffa807526d                LoadFactorySetting
                0xffffffffa80752a9                ReadConfigData
                0xffffffffa8075315                bal_GetSleepState
                0xffffffffa8075321                bal_is_first_keydown
                0xffffffffa8075339                dm_SendPMMessage
                0xffffffffa8075355                dm_SendPowerOnMessage
                0xffffffffa8075371                hal_UsbDisconnCb
                0xffffffffa80753a9                BAL_SetKeyFilter
                0xffffffffa80753e9                keyfilter_send
                0xffffffffa807544d                handle_Key_Event
                0xffffffffa8075541                BAL_SysTask
                0xffffffffa80757dd                handle_key_timeout
                0xffffffffa8075819                bal_SetSleepState
                0xffffffffa8075851                SendMessageForLineinDetect
                0xffffffffa807587d                BAL_SysTimerTimeout
                0xffffffffa8075909                COSMemTrackFree
                0xffffffffa8075941                COSMemTrackPrint
                0xffffffffa8075955                mem_removeMemoryFromAddressList
                0xffffffffa807597d                mem_removeMemoryFromLengthList
                0xffffffffa80759dd                mem_mergeMemoryInAddressList
                0xffffffffa8075ac1                mem_splitMemory
                0xffffffffa8075aed                mem_fragmentStatisticsInit
                0xffffffffa8075b5d                mem_isOverlayMem
                0xffffffffa8075b75                COSMemTrackAlloc
                0xffffffffa8075bc5                mem_fragmentStatistics
                0xffffffffa8075da1                mem_addMemoryToLengthList
                0xffffffffa8075e19                mem_addMemoryToAddressList
                0xffffffffa8075e55                mem_getMemoryFromLengthList
                0xffffffffa8075efd                mem_checkMemory
                0xffffffffa8076031                COS_MemInit
                0xffffffffa8076231                COS_FreeSetPtrNull
                0xffffffffa807624d                COS_BTOverlay_Free_All
                0xffffffffa80762d1                COS_Free_BTOverlay
                0xffffffffa80764b9                COS_Malloc_NoCache
                0xffffffffa80764d1                COS_Malloc_BTOverlay
                0xffffffffa80765b9                COS_GetLastError
                0xffffffffa80765bd                COS_GetSysTaskMbx
                0xffffffffa80765c9                Cos_GetTaskHandler
                0xffffffffa80765d5                COS_GetCurrentTaskModId
                0xffffffffa8076609                COS_GetCurrentTaskId
                0xffffffffa8076619                COS_ReleaseSemaphore
                0xffffffffa807667d                COS_GetDefaultMmiTaskHandle
                0xffffffffa80766bd                COS_WaitForSemaphore
                0xffffffffa80766e1                COS_CreateSemaphore
                0xffffffffa80766fd                COS_ExitCriticalSection
                0xffffffffa8076711                COS_EnterCriticalSection
                0xffffffffa8076721                COS_SendSysEvent
                0xffffffffa80767a5                COS_WaitEvent
                0xffffffffa8076829                COS_CreateTask
                0xffffffffa80768d1                hasFreeEnv
                0xffffffffa8076925                COS_SleepByTick
                0xffffffffa8076939                COS_Sleep
                0xffffffffa8076969                COS_KillTimerEX
                0xffffffffa8076999                COS_SetTimerEX
                0xffffffffa8076a09                COS_ChangeTimer
                0xffffffffa8076a85                COS_HandleExpiredTimers
                0xffffffffa8076b05                COS_KillTimer
                0xffffffffa8076b65                COS_SetTimer
                0xffffffffa8076c4d                COS_Timer_Initialise
                0xffffffffa8076c7d                COS_TimerDelivery
                0xffffffffa8076c95                SetBackLight
                0xffffffffa8076c99                OpenBacklight
                0xffffffffa8076c9d                CloseBacklight
                0xffffffffa8076ca1                SetContrast
                0xffffffffa8076ca5                app_trace
                0xffffffffa8076ccd                RestartSystem
                0xffffffffa8076cdd                NVRAMWriteData
                0xffffffffa8076cf1                NVRAMGetData
                0xffffffffa8076d09                LedSetCurPattern
                0xffffffffa8076d55                LedBgTimeout
                0xffffffffa8076e39                LED_SetBgPattern
                0xffffffffa8076ee5                LedTimeout
                0xffffffffa8076fb9                LED_SetPattern
                0xffffffffa8077055                IsChargePlugIn
                0xffffffffa807706d                GetBattery
                0xffffffffa8077095                APP_Sleep
                0xffffffffa80770c1                APP_Wakeup
                0xffffffffa80770fd                SetPAMute
                0xffffffffa807711d                SetPAVolume
                0xffffffffa8077141                FS_GetCurDir
                0xffffffffa80771a5                FS_PowerOn
                0xffffffffa807720d                FS_GetFileINo
                0xffffffffa8077291                FS_GetFileSize
                0xffffffffa8077349                FS_IsEndOfFile
                0xffffffffa80773d1                FS_Seek
                0xffffffffa80774f5                FS_GetFileAttrByHandle
                0xffffffffa8077591                FS_MakeDir
                0xffffffffa80776c5                FS_Write
                0xffffffffa807777d                FS_Read
                0xffffffffa807786d                FS_GetLine
                0xffffffffa80779bd                FS_Close
                0xffffffffa8077a5d                FS_Open
                0xffffffffa8077c9d                FS_Create
                0xffffffffa8077cb5                FS_ChangeDir
                0xffffffffa8077e8d                FS_UnmountRoot
                0xffffffffa8078075                FS_MountRoot
                0xffffffffa80781fd                FS_GetFSInfo
                0xffffffffa8078365                FS_HasFormatted
                0xffffffffa8078409                FS_MountDevice
                0xffffffffa8078489                FS_GetRootType
                0xffffffffa80784c9                fs_set_error_code
                0xffffffffa8078645                fs_get_free_sb
                0xffffffffa807867d                fs_find_sb
                0xffffffffa80786b9                fs_get_inode_super
                0xffffffffa80786e5                fs_fd_list_add
                0xffffffffa80786f9                fs_is_file_opened
                0xffffffffa8078711                fs_is_opened
                0xffffffffa8078731                fs_file_write
                0xffffffffa8078761                fs_file_read
                0xffffffffa8078791                fs_trunc_file
                0xffffffffa80787c5                fs_create_file
                0xffffffffa80787f9                fs_fd_list_del
                0xffffffffa807882d                fs_read_mbr
                0xffffffffa80788d5                fs_read_super
                0xffffffffa80789ed                fs_alloc_fd
                0xffffffffa8078a11                fs_delete_sb
                0xffffffffa8078a6d                fs_scan_disk
                0xffffffffa8078b11                fs_has_formated
                0xffffffffa8078b85                fs_set_work_dir
                0xffffffffa8078d61                fs_global_var_init
                0xffffffffa8078f6d                inode_list_add
                0xffffffffa8078f85                inode_list_del
                0xffffffffa8078fb9                get_empty_inode
                0xffffffffa8078fdd                iput
                0xffffffffa8079029                iget
                0xffffffffa80790dd                FS_GetSubDirEntry
                0xffffffffa80790f1                FS_GetCurDirEntry
                0xffffffffa8079105                FS_SetCurDirEntry
                0xffffffffa8079115                FS_GetExfatDirCache
                0xffffffffa807913d                FS_SetExfatDirCache
                0xffffffffa8079169                FS_ChangeSubDir
                0xffffffffa80792e9                FS_GetShortName
                0xffffffffa80793ed                FS_GetEntryName
                0xffffffffa80795bd                FS_OpenDirect
                0xffffffffa80796e5                FS_GetEntryCount
                0xffffffffa8079761                FS_GetPrevEntry
                0xffffffffa8079801                FS_GetNextEntry
                0xffffffffa80798b1                FS_LodGetUserLodPacket
                0xffffffffa8079991                FS_LodGetNextPacket
                0xffffffffa8079a2d                is_file_name_valid
                0xffffffffa8079b51                pattern_match
                0xffffffffa8079d05                fs_unicodeNameToFATFileName
                0xffffffffa8079de5                fs_findclose
                0xffffffffa8079e95                fs_close
                0xffffffffa8079f39                find_entry_by_cluster
                0xffffffffa8079ff5                get_next_entry
                0xffffffffa807a1d5                get_parent_node
                0xffffffffa807a25d                do_find_entry
                0xffffffffa807a351                find_entry
                0xffffffffa807a375                dir_namei
                0xffffffffa807a4a1                ext_match_unicode
                0xffffffffa807a509                ext_match
                0xffffffffa807a571                pattern_match_oem
                0xffffffffa807a6d9                format_dir_name
                0xffffffffa807a74d                ML_LocalLanguage2UnicodeBigEnding
                0xffffffffa807a7d5                ML_Unicode2LocalLanguage
                0xffffffffa807a845                SUL_StrChr
                0xffffffffa807a865                SUL_StrCompare
                0xffffffffa807a881                SUL_StrCaselessCompare
                0xffffffffa807a8b1                SUL_StrCopy
                0xffffffffa807a8c5                SUL_Strlen
                0xffffffffa807a8d5                SUL_StrNCompare
                0xffffffffa807a8f9                SUL_StrNCaselessCompare
                0xffffffffa807a93d                SUL_MemCopy8
                0xffffffffa807a955                SUL_MemSet8
                0xffffffffa807a971                SUL_ZeroMemory32
                0xffffffffa807a985                SUL_ZeroMemory8
                0xffffffffa807a995                SUL_CharUpper
                0xffffffffa807a9c5                SUL_Itoa
                0xffffffffa807aa49                SUL_Vsprintf
                0xffffffffa807aa59                SUL_StrVPrint
                0xffffffffa807aa69                SUL_StrPrint
                0xffffffffa807aa81                TM_PowerOff
                0xffffffffa807aa85                TM_PowerOn
                0xffffffffa807aac5                TIM_SetLastErr
                0xffffffffa807ab01                TM_GetDayNoInYear
                0xffffffffa807ac61                TM_SystemTimeToFileTime
                0xffffffffa807ad0d                TM_FileTimeToSystemTime
                0xffffffffa807ae19                csw_TMGetTick
                0xffffffffa807ae29                TM_SetSystemTime
                0xffffffffa807ae99                TM_GetSystemTime
                0xffffffffa807aee9                BAL_MultimediaTaskEntry
                0xffffffffa807af25                exfat_GetBitMapSz
                0xffffffffa807af2d                exfat_SetBitMap
                0xffffffffa807af55                exfat_read_cluster
                0xffffffffa807afe5                exfat_write_cluster
                0xffffffffa807b079                exfat_get_next_cluster
                0xffffffffa807b1cd                exfat_fpos2cluster
                0xffffffffa807b249                exfat_fpos2CSO
                0xffffffffa807b2a1                exfat_SetPos
                0xffffffffa807b2bd                exfat_GetEntryCheckSum
                0xffffffffa807b2ed                exfat_stat_free_cluster
                0xffffffffa807b3fd                exfat_get_free_cluster
                0xffffffffa807b4fd                exfat_file_name_hash
                0xffffffffa807b571                exfat_build_file_name
                0xffffffffa807b5c1                exfat_BFR2SB
                0xffffffffa807b689                exfat_set_cluser_zero
                0xffffffffa807b741                exfat_read_root_dir
                0xffffffffa807b7e5                Buf2EXFBR
                0xffffffffa807b9e1                exfat_read_sb_info
                0xffffffffa807bb9d                exfat_checkFileAttributes
                0xffffffffa807bbbd                exfat_print_dir_cache
                0xffffffffa807bbc1                exfat_get_dir_cache
                0xffffffffa807bc09                exfat_set_dir_cache
                0xffffffffa807bc69                exfat_update_dir_cache
                0xffffffffa807bd3d                exfat_search_dir_parent_cache
                0xffffffffa807bdd1                exfat_init_dir_cache
                0xffffffffa807be11                exfat_get_null_entry_ino
                0xffffffffa807bf6d                exfat_read_entries
                0xffffffffa807c079                exfat_checkFileFilter
                0xffffffffa807c0bd                exfat_lookup_dir
                0xffffffffa807c4fd                exfat_get_name_for_entrys
                0xffffffffa807c699                exfat_lookup_file
                0xffffffffa807c8e5                exfat_write_entries
                0xffffffffa807ca59                exfat_add_entry
                0xffffffffa807cbbd                exfat_make_entries
                0xffffffffa807ccd9                exfat_trunc_fatentry
                0xffffffffa807cd6d                exfat_is_inode_relating_with_fatcache
                0xffffffffa807cd91                exfat_relate_inode_with_fatcache
                0xffffffffa807cde1                exfat_file_read
                0xffffffffa807cfe5                exfat_update_dentry
                0xffffffffa807d0c5                exfat_synch_relating_file
                0xffffffffa807d11d                exfat_synch_cache
                0xffffffffa807d17d                exfat_set_fat_entry_value
                0xffffffffa807d28d                exfat_set_bat_entry_value
                0xffffffffa807d38d                exfat_set_bat_fat_entry
                0xffffffffa807d48d                exfat_file_write
                0xffffffffa807d685                exfat_scan_disk
                0xffffffffa807d689                exfat_is_formated
                0xffffffffa807d765                exfat_trunc_file
                0xffffffffa807d7fd                exfat_create_file
                0xffffffffa807d8cd                exfat_write_inode
                0xffffffffa807d90d                exfat_do_find_entry
                0xffffffffa807d991                exfat_read_inode
                0xffffffffa807da8d                NameFat2User
                0xffffffffa807db1d                fat_GetFatType
                0xffffffffa807db35                CheckFDE
                0xffffffffa807dba5                fat_read_cluster
                0xffffffffa807dc19                fat_write_cluster
                0xffffffffa807dca9                fat_revert_cluster
                0xffffffffa807dd41                fat_is_last_cluster
                0xffffffffa807dd69                fat_SetPos
                0xffffffffa807dd85                fat_ChkSum
                0xffffffffa807dda9                fat_name_change
                0xffffffffa807dde1                fat_get_fat_cache
                0xffffffffa807de0d                fat_stat_free_cluster
                0xffffffffa807e089                fat_get_long_name
                0xffffffffa807e101                FLDE2Buf
                0xffffffffa807e165                Buf2FLDE
                0xffffffffa807e1dd                Buf2FDE
                0xffffffffa807e269                FDE2Buf
                0xffffffffa807e301                FSI2Buf
                0xffffffffa807e375                fat_synch_fsinfo
                0xffffffffa807e435                Buf2FBR
                0xffffffffa807e641                Buf2MBR
                0xffffffffa807e74d                fat_long_to_short
                0xffffffffa807e859                fat_is_long_name_valid
                0xffffffffa807e8b5                fat_TrimOem
                0xffffffffa807e92d                fat_Trim
                0xffffffffa807e9a5                fat_get_free_cluster
                0xffffffffa807eba9                fat_get_next_cluster
                0xffffffffa807ed69                fat_get_name_for_entrys
                0xffffffffa807f07d                fat_get_short_name
                0xffffffffa807f1f1                fat_fpos2cluster
                0xffffffffa807f279                fat_fpos2CSO
                0xffffffffa807f2c9                fat_get_next_entry
                0xffffffffa807f779                fat_lookup_entry
                0xffffffffa807fca5                fat_read_sb_info
                0xffffffffa807fe61                NameUser2Fat
                0xffffffffa807ff6d                fat_get_long_entry
                0xffffffffa80802a5                fat_relate_inode_with_fatcache
                0xffffffffa80802f5                fat_file_read
                0xffffffffa8080501                fat_update_dentry
                0xffffffffa8080629                fat_synch_relating_file
                0xffffffffa8080681                fat_is_inode_relating_with_fatcache
                0xffffffffa80806b9                fat_synch_fat_cache
                0xffffffffa8080755                fat_set_fat_entry_value
                0xffffffffa8080991                fat_file_write
                0xffffffffa8080b71                fat_get_fat_entry_value
                0xffffffffa8080d15                fat_set_fat_entry_all
                0xffffffffa8080da9                fat_set_dentry
                0xffffffffa8080ed5                fat_scan_disk
                0xffffffffa808147d                fat_is_formated
                0xffffffffa8081539                fat_read_inode
                0xffffffffa8081689                fat_trunc_file
                0xffffffffa8081825                fat_create_file
                0xffffffffa808190d                fat_write_inode
                0xffffffffa8081949                fat_do_find_entry
                0xffffffffa8081b7d                aud_set_result
                0xffffffffa8081b89                aud_get_result
                0xffffffffa8081b95                media_is_bt_playing
                0xffffffffa8081bb5                no_play_inter
                0xffffffffa8081bcd                aud_bt_main
                0xffffffffa8081bd1                aud_init
                0xffffffffa8081bd5                MediaSendAppEvent
                0xffffffffa8081cf5                AudStopInternalAudio
                0xffffffffa8081d2d                AudPlayInternalAudio
                0xffffffffa8081e49                aud_main
                0xffffffffa8082569                fat_read_entries
                0xffffffffa80827c9                fat_read_root_entries
                0xffffffffa8082a29                fat_write_root_entries
                0xffffffffa8082bf5                fat_write_entries
                0xffffffffa8082d4d                fat_add_root_entry
                0xffffffffa8083029                fat_add_entry
                0xffffffffa80834ad                fat_trunc_fatentry
                0xffffffffa8083585                calib_DaemonInit
                0xffffffffa80835dd                calib_BurnFlash
                0xffffffffa8083771                tgt_GetGPIOCfg
                0xffffffffa808377d                tgt_GetKeyCfg
                0xffffffffa8083789                tgt_GetTscKeyIndex
                0xffffffffa808378d                tgt_GetKeyCode
                0xffffffffa80837a1                tgt_Open
                0xffffffffa80837b1                tgt_GetFactorySettings
                0xffffffffa80837bd                tgt_GetHalConfig
                0xffffffffa80837c9                tgt_GetAudInit
                0xffffffffa80837d5                tgt_GetAudConfig
                0xffffffffa80837e1                tgt_GetPmdConfig
                0xffffffffa80837ed                tgt_GetMcdConfig
                0xffffffffa80837f9                tgt_GetFmdConfig
                0xffffffffa8083805                tgt_GetBtdConfig
                0xffffffffa8083811                tgt_GetBtMaxDeviceNum
                0xffffffffa8083815                tgt_GetBtDefaultMode
                0xffffffffa8083819                tgt_GetTsdConfig
                0xffffffffa8083825                tgt_GetDsmCfg
                0xffffffffa8083831                tgt_GetCalibConfig
                0xffffffffa808383d                tgt_RegisterAllModules
                0xffffffffa8083865                tgt_GetBtInfo
                0xffffffffa8083885                AppPowerOnEntry
                0xffffffffa80838b1                AppExitPowerOnScreen
                0xffffffffa8083921                APP_DisplayLogo_TimeOutHandler
                0xffffffffa8083981                AppPowerOnMsgHandler
                0xffffffffa8083a25                APP_StandBy
                0xffffffffa8083a59                APP_StandBy_MsgHandler
                0xffffffffa8083b5d                DSM_EnqNvram
                0xffffffffa8083b95                APP_ReadComPara
                0xffffffffa8083cb1                BAL_MainTaskEntry
                0xffffffffa8083e1d                AP_GetBuildDate
                0xffffffffa8083e29                AP_GetBuildTime
                0xffffffffa8083e35                AP_GetVersion
                0xffffffffa8083e3d                ap_convert_volume
                0xffffffffa8083e79                mmi_handle_expired_timers
                0xffffffffa8083eb5                mmi_cancel_timer
                0xffffffffa8083f1d                mmi_change_timer
                0xffffffffa8083f99                mmi_timer_create
                0xffffffffa808401d                mmi_timer_initialise
                0xffffffffa8084041                TM_GetDateAndTime
                0xffffffffa80840a5                MountDisk
                0xffffffffa80840f5                FS_GetSpace
                0xffffffffa8084165                GenNewName
                0xffffffffa8084299                AudSendCommandReq
                0xffffffffa8084325                media_PlayInternalAudio
                0xffffffffa8084361                media_StopInternalAudio
                0xffffffffa8084375                mediaSendCommand
                0xffffffffa8084395                mediaSendBTCommand
                0xffffffffa80843b5                mediaSendFMCommand
                0xffffffffa80843d5                mediaSendLineInCommand
                0xffffffffa80843f5                MESSAGE_IsNumberKey
                0xffffffffa8084425                MESSAGE_IsHold
                0xffffffffa808443d                MESSAGE_HoldFlagClr
                0xffffffffa8084449                InitProtocolEvent
                0xffffffffa8084465                AppGetModeRing
                0xffffffffa808447d                AppGetNextMode
                0xffffffffa80844e1                ExecuteCurrProtocolHandler
                0xffffffffa8084539                AppModSwitchHandler
                0xffffffffa8084621                SetProtocolEventHandler
                0xffffffffa8084685                ClearProtocolEventHandler
                0xffffffffa8084699                AppPlayModeRingFinishHandler
                0xffffffffa80846cd                AppSwitchLanguage
                0xffffffffa8084729                Batt_Timeout
                0xffffffffa8084741                AppMsgResetRtcCounter
                0xffffffffa8084771                AppGobackScreen
                0xffffffffa8084785                ApMessageSendEvent
                0xffffffffa80847a1                AppMsgPreHandler
                0xffffffffa8084949                AppGotoMainMenu
                0xffffffffa8084961                MESSAGE_Hotkey
                0xffffffffa8084b05                AppDefaultMsgHandler
                0xffffffffa8084c0d                shutdown_timeout
                0xffffffffa8084c3d                app_get_bt_intercept_switch_mode_result
                0xffffffffa8084c49                app_get_mgr_state
                0xffffffffa8084c55                app_bt_connect_second_device
                0xffffffffa8084c59                app_fcc_test_stop
                0xffffffffa8084c7d                app_get_mgr_adp_info_req
                0xffffffffa8084ca1                app_remove_device_req
                0xffffffffa8084cc1                app_sco_disconnect_req
                0xffffffffa8084ce9                app_sco_connect_req
                0xffffffffa8084d09                app_bt_dut_test_req
                0xffffffffa8084d2d                app_bt_mode_switch
                0xffffffffa8084d79                app_bt_get_rssi_req
                0xffffffffa8084db1                app_bt_get_rssi_req2
                0xffffffffa8084dd1                app_mgr_deal_discover_result_func
                0xffffffffa8084df5                app_set_bt_intercept_switch_mode_result
                0xffffffffa8084e21                app_bt_entry
                0xffffffffa8084e41                app_bt_inquiry_cancel_req
                0xffffffffa8084e89                app_bt_close_complet
                0xffffffffa8084ed5                app_mgr_vol_key_up
                0xffffffffa8084f65                app_cancel_reconnect
                0xffffffffa8084f9d                app_exit_timer_check
                0xffffffffa8084fd5                BT_ChangeVol
                0xffffffffa80851b5                app_mgr_PlayInternalAudio
                0xffffffffa808521d                app_mgr_add_device
                0xffffffffa80853c9                app_start_reconnect
                0xffffffffa8085479                app_mgr_store
                0xffffffffa8085559                app_mgr_bonding_cnf_cb
                0xffffffffa80855d9                app_find_bt_device
                0xffffffffa8085625                app_hci_msg_handle
                0xffffffffa8085649                app_set_mgr_state
                0xffffffffa8085695                app_bt_inquiry_req
                0xffffffffa8085729                app_mgr_deal_discover_cnf_func
                0xffffffffa8085755                app_set_bt_visible_req
                0xffffffffa8085821                app_fcc_test
                0xffffffffa8085865                app_bt_main_key_handle
                0xffffffffa8085a59                app_bt_vco_test_req
                0xffffffffa8085a81                app_mgr_msg_handle
                0xffffffffa8085d11                app_bt_change_name_req
                0xffffffffa8085d6d                app_bt_close_req
                0xffffffffa8085de9                app_switch_mode_handle
                0xffffffffa8085e4d                app_bt_switch_mode_handler
                0xffffffffa8085e85                app_common_msg_handle
                0xffffffffa8085f75                app_bt_set_default_addr
                0xffffffffa8085fd9                app_bt_init
                0xffffffffa808622d                app_bt_get_address
                0xffffffffa808624d                app_bt_set_address
                0xffffffffa8086295                app_bt_active_req
                0xffffffffa80862fd                app_bt_main_msg_handle
                0xffffffffa80863e5                app_bt_set_local_name
                0xffffffffa808642d                app_bt_get_local_name
                0xffffffffa808644d                app_bt_connect
                0xffffffffa8086525                app_adp_msg_handle
                0xffffffffa80865d9                app_bt_connect_retry
                0xffffffffa8086731                app_mgr_bt_state_machine
                0xffffffffa80867e5                app_mgr_audio_play
                0xffffffffa8086919                app_bt_msg_handle
                0xffffffffa8086a15                find_str
                0xffffffffa8086a61                MUSIC_ClearBreakTimePara
                0xffffffffa8086a8d                ChangeVolume
                0xffffffffa8086bed                MUSIC_CommonKeyHandler
                0xffffffffa8086cc9                UpdateFileSelector
                0xffffffffa8086d5d                MUSIC_CheckType
                0xffffffffa8086dd9                MUSIC_SelectAudio
                0xffffffffa8086f15                MUSIC_GetInformation
                0xffffffffa808700d                MUSIC_StopGetFileInfoTimeout
                0xffffffffa8087039                MUSIC_EnterStatus
                0xffffffffa80871c1                MUSIC_StopStatusKeyHandler
                0xffffffffa80872c9                PrevMusicInPlay
                0xffffffffa808731d                ToNextMusic
                0xffffffffa8087379                MUSIC_PlayGuardHandler
                0xffffffffa80873f1                MUSIC_PlayStatusKeyHandler
                0xffffffffa80875fd                MusicMainMsgHandler
                0xffffffffa8087831                MUSIC_play_callback_hdlr
                0xffffffffa80878d1                MUSIC_GetPara
                0xffffffffa80879a9                MUSIC_Entry
                0xffffffffa8087bf5                app_pbap_disconnect
                0xffffffffa8087c19                app_get_pbap_data
                0xffffffffa8087c45                app_get_call_recends_size
                0xffffffffa8087ca5                app_get_pbap_size
                0xffffffffa8087d05                app_pbap_deal_pb_data
                0xffffffffa8087f81                app_pbap_deal_history_data
                0xffffffffa8088209                app_pbap_msg_handle
                0xffffffffa8088321                Record_PlayStatus_SelectFile
                0xffffffffa808836d                Record_recording_callback_hdlr
                0xffffffffa80883d5                ChangePlayVolume
                0xffffffffa8088441                RECORD_VolumeCb
                0xffffffffa8088549                Record_PlayStaus_OpenFile
                0xffffffffa80885a1                Record_playing_callback_hdlr
                0xffffffffa8088611                RECORD_CommonKeyHandler
                0xffffffffa80886c9                RECORD_TotalNum
                0xffffffffa80889cd                Record_StopStatusKeyHandler
                0xffffffffa8088aa1                Record_RecStatusKeyHandler
                0xffffffffa8088bd1                Record_PlayStatusKeyHandler
                0xffffffffa8088d95                RecordMainMsgHandler
                0xffffffffa8088e85                RECORD_ResetDir
                0xffffffffa8088ef1                RECORD_Entry
                0xffffffffa808909d                APP_Test_Mode_MESSAGE_Wait
                0xffffffffa80890c1                APP_Test_Mode
                0xffffffffa8089359                GetUsbCableStatus
                0xffffffffa8089365                USB_Entry
                0xffffffffa8089385                AppUSBMainMsgHandler
                0xffffffffa8089425                USB_Entry_Storage
                0xffffffffa8089451                AppUSBStorageMsgHandler
                0xffffffffa80894fd                app_clean_a2dp_adp_info
                0xffffffffa8089509                app_get_a2dp_state
                0xffffffffa8089515                app_get_a2dp_adp_info
                0xffffffffa8089535                app_a2dp_handle_key
                0xffffffffa808955d                app_a2dp_is_active
                0xffffffffa808959d                app_a2dp_update_last_device
                0xffffffffa80895d9                app_check_a2dp_connection
                0xffffffffa8089611                app_a2dp_get_adp_info_req
                0xffffffffa8089635                app_disconnect_a2dp_all
                0xffffffffa8089659                app_disconnect_a2dp
                0xffffffffa80896c1                app_a2dp_drop_sbc
                0xffffffffa808972d                app_connect_a2dp
                0xffffffffa80897a9                app_a2dp_check_active
                0xffffffffa8089809                app_a2dp_drop_other_deivce
                0xffffffffa8089861                app_find_a2dp_device
                0xffffffffa80898b1                app_find_a2dp_device_state
                0xffffffffa80898cd                app_get_a2dp_idle_device
                0xffffffffa8089941                app_a2dp_clean_timer
                0xffffffffa808998d                app_a2dp_switch_mode
                0xffffffffa80899c5                app_cancel_create_a2dp_connection
                0xffffffffa8089a01                app_create_a2dp_connection
                0xffffffffa8089a69                app_a2dp_check_device_conneciton
                0xffffffffa8089afd                app_set_a2dp_state
                0xffffffffa8089b45                app_a2dp_bt_state_machine
                0xffffffffa8089b95                app_a2dp_stop_sbc
                0xffffffffa8089bf1                app_a2dp_play_sbc
                0xffffffffa8089c95                app_a2dp_msg_handle
                0xffffffffa8089fc1                app_a2dp_play_sbc_after
                0xffffffffa808a04d                app_clean_avrcp_adp_info
                0xffffffffa808a059                app_get_avrcp_adp_info
                0xffffffffa808a079                app_avrcp_update_last_device
                0xffffffffa808a0b9                app_find_active_avrcp_device
                0xffffffffa808a0f1                app_check_avrcp_connection
                0xffffffffa808a129                app_avrcp_free_msg_info
                0xffffffffa808a149                app_avrcp_send_key
                0xffffffffa808a1c1                app_avrcp_get_adp_info_req
                0xffffffffa808a1e5                app_disconnect_avrcp_all
                0xffffffffa808a209                app_avrcp_switch_mode
                0xffffffffa808a235                app_disconnect_avrcp
                0xffffffffa808a255                app_avrcp_sync_volume
                0xffffffffa808a299                app_find_avrcp_device
                0xffffffffa808a2f1                app_avrcp_msg_handle
                0xffffffffa808a5fd                app_avrcp_handle_key
                0xffffffffa808a9bd                app_connect_avrcp
                0xffffffffa808a9f9                FM_CheckParam
                0xffffffffa808aa89                FM_ShowFreqIn
                0xffffffffa808aab9                AppFMDo
                0xffffffffa808ac35                FM_StationListOperator
                0xffffffffa808ae29                FM_Entry
                0xffffffffa808aed1                FMEntrySearchScreen
                0xffffffffa808af4d                AppFMMainKeyHandler
                0xffffffffa808b105                FM_OnStart
                0xffffffffa808b161                AppFMMainMsgHandler
                0xffffffffa808b24d                FMSearchScreenMsgHandler
                0xffffffffa808b439                FM_SearchTimeout
                0xffffffffa808b595                GetExtBuf
                0xffffffffa808b5b1                fselGetTotal
                0xffffffffa808b5d9                fselGetNo
                0xffffffffa808b601                fselSetMode
                0xffffffffa808b619                fselGetErrID
                0xffffffffa808b625                fselInit
                0xffffffffa808b6a1                SelectPrev
                0xffffffffa808b755                SelectNext
                0xffffffffa808b801                SelectPrevtDisk
                0xffffffffa808b885                fselGetLast
                0xffffffffa808b905                SelectNextDisk
                0xffffffffa808b9a1                fselGetNoByEntry
                0xffffffffa808ba59                fselGetByNO
                0xffffffffa808bb19                fselGetNext
                0xffffffffa808bbe5                fselGetNextFile
                0xffffffffa808bc05                fselGetPrev
                0xffffffffa808bc9d                fselGetPrevFile
                0xffffffffa808bcbd                fselGetLocationC
                0xffffffffa808bd25                fselGetLocation
                0xffffffffa808bd45                fselSetLocationC
                0xffffffffa808be55                fselSetLocation
                0xffffffffa808be75                app_get_hfp_state
                0xffffffffa808be81                app_clean_hfp_adp_info
                0xffffffffa808be8d                app_hfp_poweroff
                0xffffffffa808bead                app_get_hfp_adp_info
                0xffffffffa808becd                app_hfp_update_last_device
                0xffffffffa808bf0d                app_check_hfp_connection
                0xffffffffa808bf45                app_find_active_hfp_device
                0xffffffffa808bf79                app_hfp_stop_sco
                0xffffffffa808bfb1                app_hfp_msg_free
                0xffffffffa808bfd1                app_hfp_send_voice_recognition
                0xffffffffa808bffd                app_hfp_send_vol
                0xffffffffa808c04d                app_hfp_get_pbap_data_req
                0xffffffffa808c099                app_hfp_get_pbap_req
                0xffffffffa808c0e5                app_hfp_get_adp_info_req
                0xffffffffa808c109                app_hfp_send_raw_data
                0xffffffffa808c161                app_hfp_register_battery
                0xffffffffa808c1a9                app_hfp_register_battery_timer
                0xffffffffa808c1b9                app_hfp_call_req
                0xffffffffa808c26d                app_hfp_call_terminal_req
                0xffffffffa808c2a1                app_hfp_call_answer_req
                0xffffffffa808c2e1                app_disconnect_hfp_all
                0xffffffffa808c305                app_disconnect_hfp
                0xffffffffa808c33d                app_hfp_send_nrec
                0xffffffffa808c35d                app_connect_hfp
                0xffffffffa808c3d9                app_hfp_check_device_conneciton
                0xffffffffa808c45d                app_get_hfp_idle_device
                0xffffffffa808c4cd                app_find_hfp_device
                0xffffffffa808c531                app_create_hfp_connection
                0xffffffffa808c5c5                app_hfp_send_battery
                0xffffffffa808c65d                app_hfp_send_battery_delay_timer
                0xffffffffa808c695                app_start_play_tel_number
                0xffffffffa808c7c1                app_hfp_clean_timer
                0xffffffffa808c809                app_hfp_switch_mode
                0xffffffffa808c831                app_cancel_create_hfp_connection
                0xffffffffa808c899                app_set_hfp_state
                0xffffffffa808c94d                app_hfp_handle_key
                0xffffffffa808ccb9                app_hfp_bt_state_machine
                0xffffffffa808cde1                app_hfp_play_sco
                0xffffffffa808ceb1                app_hfp_msg_handle
                0xffffffffa808d3a5                LINEIN_Entry
                0xffffffffa808d3d1                LineinEntryStatus
                0xffffffffa808d435                LineIn_ChangeVolume
                0xffffffffa808d48d                AppLineinKeyHandler
                0xffffffffa808d529                AppLineinMsgHandler
                0xffffffffa808d605                fselPlayListInit
                0xffffffffa808d819                RDABT_Remove_Transport
                0xffffffffa808d849                hal_AnaGpadcGpadc2Volt
                0xffffffffa808d959                hal_AnaGpadcGetCalibHigh
                0xffffffffa808d965                hal_AnaGpadcGetCalibLow
                0xffffffffa808d971                hal_AnaGpadcClose
                0xffffffffa808d99d                hal_AnaGpadcGetRaw
                0xffffffffa808da45                hal_AnaGpadcGet
                0xffffffffa808da5d                hal_AnaGpadcOpen
                0xffffffffa808db25                hal_I2cReadRawByte
                0xffffffffa808dc8d                hal_I2cSendRawByte
                0xffffffffa808ddc1                hal_I2cClose
                0xffffffffa808ddf1                hal_I2cOpen
                0xffffffffa808e09d                hal_RegisterYourself
                0xffffffffa808e0e5                hal_PwmResourceMgmt
                0xffffffffa808e151                hal_PwlSelLevel
                0xffffffffa808e1f9                hal_SdmmcSendCmd
                0xffffffffa808e2c5                hal_SdmmcCmdDone
                0xffffffffa808e315                hal_SdmmcGetOpStatus
                0xffffffffa808e325                hal_SdmmcEnterDataTransferMode
                0xffffffffa808e33d                hal_SdmmcIsBusy
                0xffffffffa808e371                hal_SdmmcStopTransfer
                0xffffffffa808e3e1                hal_SdmmcTransferDone
                0xffffffffa808e465                hal_SdmmcSetDataWidth
                0xffffffffa808e495                hal_SdmmcGetResp
                0xffffffffa808e541                hal_SdmmcNeedResponse
                0xffffffffa808e5c1                hal_SdmmcTransfer
                0xffffffffa808e655                hal_SdmmcSetClk
                0xffffffffa808e681                hal_SdmmcSleep
                0xffffffffa808e699                hal_SdmmcWakeUp
                0xffffffffa808e6d1                hal_SdmmcClose
                0xffffffffa808e70d                hal_SdmmcOpen
                0xffffffffa808e795                hal_Speech_BtFifoReset
                0xffffffffa808e811                hal_Speech_BtPopRxPushTx
                0xffffffffa808e8ed                hal_Speech_BtPushRxPopTx
                0xffffffffa808e9d9                __assert
                0xffffffffa808e9e9                atoi
                0xffffffffa808ea31                printf
                0xffffffffa808eaa9                rand
                0xffffffffa808eac9                strcat
                0xffffffffa808eae5                strcmp
                0xffffffffa808eb01                tcslen
                0xffffffffa808eb11                tcscpy
                0xffffffffa808eb25                tcsncpy
                0xffffffffa808eb4d                tcscat
                0xffffffffa808eb69                tcscmp
                0xffffffffa808eb81                tcsncmp
                0xffffffffa808eba1                tcschr
                0xffffffffa808ebc5                tcsupr
                0xffffffffa808ebe9                strncmp
                0xffffffffa808ec0d                strncpy
                0xffffffffa808ec35                strnicmp
                0xffffffffa808ec91                strstr
                0xffffffffa808ece1                strtoul
                0xffffffffa808ede5                sxr_ReleaseMutex
                0xffffffffa808eee9                sxr_TakeMutex
                0xffffffffa808efa5                vsscanf
                0xffffffffa808f3ed                sscanf
                0xffffffffa808f405                strtol
                0xffffffffa808f545                gpio_SetLED
                0xffffffffa808f571                aud_CodecGalliteInit
                0xffffffffa808f58d                aud_CodecGalliteCalibUpdateValues
                0xffffffffa808f59d                aud_CodecGalliteTonePause
                0xffffffffa808f5b1                aud_CodecGalliteTone
                0xffffffffa808f5c5                aud_CodecGalliteStreamRecord
                0xffffffffa808f609                aud_CodecGalliteStreamPause
                0xffffffffa808f61d                aud_CodecGalliteStreamStop
                0xffffffffa808f62d                aud_CodecGalliteStreamStart
                0xffffffffa808f719                aud_CodecGalliteSetup
                0xffffffffa808f729                btd_RegisterYourself
                0xffffffffa808f72d                fmd_I2sOpen
                0xffffffffa808f739                fmd_I2sClose
                0xffffffffa808f759                fmd_I2cClose
                0xffffffffa808f771                rdafm_iic_write_data
                0xffffffffa808f7e9                rdafm_iic_read_data
                0xffffffffa808f8b5                fmd_GetRssi
                0xffffffffa808f8e1                fmd_GetStereoStatus
                0xffffffffa808f91d                fmd_GetFreq
                0xffffffffa808f985                fmd_Scheduler
                0xffffffffa808fa0d                fmd_Tune
                0xffffffffa808fa9d                fmd_ValidStop
                0xffffffffa808fb69                fmd_Open
                0xffffffffa808fcb9                fmd_Close
                0xffffffffa808fd19                fmd_SetVolume
                0xffffffffa808fdc1                memd_RegisterYourself
                0xffffffffa808fdc5                pmd_RegisterYourself
                0xffffffffa808fe79                DRV_CloseTFlash
                0xffffffffa808ff79                DRV_ActiveTFlash
                0xffffffffa80900a9                DRV_DeactiveTFlash
                0xffffffffa80900f1                DRV_FlushTFlash
                0xffffffffa8090129                DRV_GetDevInfoTFlash
                0xffffffffa8090175                DRV_WriteTFlash
                0xffffffffa809034d                DRV_ReadTFlash
                0xffffffffa8090489                DRV_OpenTFlash
                0xffffffffa8090559                csw_SetResourceActivity
                0xffffffffa80905a9                DM_KeyboardInit
                0xffffffffa80905cd                dm_Init
                0xffffffffa80905f9                dm_PowerdownInit
                0xffffffffa8090609                DM_CheckPowerOnCause
                0xffffffffa80906c1                dm_PowerOnCheck
                0xffffffffa80906f9                DM_DeviceSwithOff
                0xffffffffa8090719                dm_KeyInit
                0xffffffffa8090731                dm_tsc_KeyHandler
                0xffffffffa8090785                DSM_UnicodeLen
                0xffffffffa80907a1                DSM_GetFileTime2Time
                0xffffffffa80907d1                DSM_GetFileTime2Date
                0xffffffffa8090805                DSM_GetTimeTeenth
                0xffffffffa8090825                DSM_UniteFileTime
                0xffffffffa80908ad                DSM_GetFileTime
                0xffffffffa8090901                AT_AsyncEventProcess
                0xffffffffa8090905                AT_CommandLineProcess
                0xffffffffa8090a31                FirstCmdIsBSlash
                0xffffffffa8090a65                RestoreCmdBuffer
                0xffffffffa8090a85                BackupCmdBuffer
                0xffffffffa8090ab1                AT_RunNextCommand
                0xffffffffa8090b6d                AT_GetMode
                0xffffffffa8090b79                AT_GetCmerMode
                0xffffffffa8090b85                AT_SetStatus
                0xffffffffa8090b91                AT_GetStatus
                0xffffffffa8090b9d                AT_GetCommandList
                0xffffffffa8090ba9                AT_GetIndicationList
                0xffffffffa8090bb5                AT_GetCmdBuf
                0xffffffffa8090bc1                AT_IsAsyncTimer
                0xffffffffa8090bd5                AT_WriteUartString
                0xffffffffa8090c1d                AT_WriteUart
                0xffffffffa8090c31                AT_KillAsyncTimer
                0xffffffffa8090c5d                AT_SetAsyncTimer
                0xffffffffa8090c8d                AT_CleanCmdBuf
                0xffffffffa8090cb1                AT_ClearCommandList
                0xffffffffa8090cd5                AT_ModuleInit
                0xffffffffa8090d55                AT_GetNodeCount
                0xffffffffa8090d65                AT_ClearNode
                0xffffffffa8090d85                AT_CreateNode
                0xffffffffa8090e0d                AT_AddNode
                0xffffffffa8090e51                AT_AddNodeToChain
                0xffffffffa8090e9d                AT_IsTermiCmd
                0xffffffffa8090ef9                AT_IsBaseCmd
                0xffffffffa8090f55                AT_CmdLineSyntaxParser
                0xffffffffa8092295                AT_EX_CmdFunc_RCMD
                0xffffffffa8092299                BAL_ATInit
                0xffffffffa80922c9                SA_GetCmdHandler
                0xffffffffa8092321                SA_UartRecevDataInd
                0xffffffffa8092449                SA_DefaultCmdHandler_AT
                0xffffffffa809249d                SA_DefaultCmdHandler_Error
                0xffffffffa80924ed                SA_DefaultCmdHandler_CR
                0xffffffffa809253d                SA_DefaultCmdHandler_NotSuppotted
                0xffffffffa80925b5                AT_Util_CheckValidateString
                0xffffffffa80925c1                AT_Util_TrimLeftChar
                0xffffffffa80925e5                AT_Util_TrimLeft
                0xffffffffa8092611                AT_Util_IsStringNumeric
                0xffffffffa8092649                AT_Util_TrimBackspace
                0xffffffffa8092699                AT_Util_TrimRight
                0xffffffffa80926dd                AT_Util_Trim
                0xffffffffa80926f9                AT_Util_ParaParser
                0xffffffffa8092769                AT_GetError
                0xffffffffa8092821                AT_GetError_CMS
                0xffffffffa8092835                AT_GetError_CME
                0xffffffffa8092849                AT_GetError_DCE
                0xffffffffa8092969                AT_Util_GetParaCount
                0xffffffffa80929a1                AT_Util_CheckValidUn
                0xffffffffa8092ab9                AT_Util_CheckValidateU32
                0xffffffffa8092ac9                AT_Util_CheckValidateU16
                0xffffffffa8092ad9                AT_Util_CheckValidateU8
                0xffffffffa8092ae9                AT_Util_GetPara
                0xffffffffa8092b55                AT_Util_GetTrimedPara
                0xffffffffa8092b8d                AT_Util_GetParaWithRule
                0xffffffffa8092d15                AT_Util_TrimRspStringSuffixCrLf
                0xffffffffa8092d81                AT_AddIndToList
                0xffffffffa8092d99                AT_FreeCurInd
                0xffffffffa8092db5                AT_FreeCurCmd
                0xffffffffa8092dd5                AT_AddCmdToList
                0xffffffffa8092e1d                strupr
                0xffffffffa8092e45                AT_CreateRC
                0xffffffffa8092f79                ATE_HandleException
                0xffffffffa80930c5                AT_NotifyResult2ATM
                0xffffffffa8093475                ATE_HandleTimeout
                0xffffffffa80934e9                at_RegisterYourself
                0xffffffffa8093505                AT_Check_Param
                0xffffffffa8093581                AT_End
                0xffffffffa80935c5                AT_EMOD_CmdFunc_BTVCOTEST
                0xffffffffa80935e1                AT_EMOD_CmdFunc_BTDUTTEST
                0xffffffffa8093605                AT_EMOD_CmdFunc_FCCSTOP
                0xffffffffa8093621                AT_EMOD_CmdFunc_FCC
                0xffffffffa80936f1                AT_EMOD_CmdFunc_BTGETA2DPSTATUS
                0xffffffffa8093745                AT_EMOD_CmdFunc_BTGETSTATUS
                0xffffffffa8093799                AT_EMOD_CmdFunc_BTSETLNAME
                0xffffffffa8093835                AT_EMOD_CmdFunc_BTSETADDR
                0xffffffffa809390d                AT_EMOD_CmdFunc_GETCR
                0xffffffffa8093981                AT_EMOD_CmdFunc_GETPB
                0xffffffffa80939f5                AT_EMOD_CmdFunc_HFPDISCSCO
                0xffffffffa8093a29                AT_EMOD_CmdFunc_HFPCONSCO
                0xffffffffa8093a9d                AT_EMOD_CmdFunc_HFPGETPB
                0xffffffffa8093b11                AT_EMOD_CmdFunc_HFPSENDAT
                0xffffffffa8093bd9                AT_EMOD_CmdFunc_HFPCALL
                0xffffffffa8093c8d                AT_EMOD_CmdFunc_HFPTERMINALCALL
                0xffffffffa8093d01                AT_EMOD_CmdFunc_HFPREJECTCALL
                0xffffffffa8093d75                AT_EMOD_CmdFunc_HFPACCEPTCALL
                0xffffffffa8093de9                AT_EMOD_CmdFunc_HFPDISCONNECT
                0xffffffffa8093e5d                AT_EMOD_CmdFunc_HFPCONNECT
                0xffffffffa8093ed1                AT_EMOD_CmdFunc_BTVOLDOWN
                0xffffffffa8093ef5                AT_EMOD_CmdFunc_BTVOLUP
                0xffffffffa8093f19                AT_EMOD_CmdFunc_BTGETTRACKINFO
                0xffffffffa8093f81                AT_EMOD_CmdFunc_BTBACKWARD
                0xffffffffa8094041                AT_EMOD_CmdFunc_BTFORWARD
                0xffffffffa8094101                AT_EMOD_CmdFunc_BTPAUSE
                0xffffffffa80941c1                AT_EMOD_CmdFunc_BTPLAY
                0xffffffffa8094281                AT_EMOD_CmdFunc_BTAVRCPDISCONNECT
                0xffffffffa80942f5                AT_EMOD_CmdFunc_BTAVRCPCONNECT
                0xffffffffa8094369                AT_EMOD_CmdFunc_A2DPDISCONNECT
                0xffffffffa80943dd                AT_EMOD_CmdFunc_A2DPCONNECT
                0xffffffffa8094451                AT_EMOD_CmdFunc_BTGETRSSI
                0xffffffffa809450d                AT_EMOD_CmdFunc_BTGETRSSI_Timeout
                0xffffffffa8094575                AT_EMOD_CmdFunc_BTGETRSSI_CB
                0xffffffffa80945e9                AT_EMOD_CmdFunc_BTSETNAME
                0xffffffffa8094611                AT_EMOD_CmdFunc_BTINVISIBLE
                0xffffffffa8094631                AT_EMOD_CmdFunc_BTVISIBLE
                0xffffffffa8094651                AT_EMOD_CmdFunc_BTCLOSE
                0xffffffffa809466d                AT_EMOD_CmdFunc_BTINQUIRECANCEL
                0xffffffffa8094689                AT_EMOD_CmdFunc_BTINQUIRY
                0xffffffffa80946bd                AT_EMOD_CmdFunc_BTSWITCH
                0xffffffffa80946ed                AT_EMOD_CmdFunc_BTOPEN
                0xffffffffa8094709                AT_COMMON_Result_Err
                0xffffffffa809474d                AT_COMMON_Result_OK
                0xffffffffa8094791                AT_COMMON_CmdFunc_WritePeripheralReg
                0xffffffffa80949a1                AT_COMMON_CmdFunc_ReadPeripheralReg
                0xffffffffa8094b95                AT_COMMON_CmdFunc_Version
                0xffffffffa8094c01                AT_COMMON_CmdFunc_Shutdown
                0xffffffffa8094c3d                AT_COMMON_CmdFunc_Reset
                0xffffffffa8094c61                AT_COMMON_CmdFunc_Sleep
                0xffffffffa8094c85                AT_COMMON_CmdFunc_ModeSwitch
                0xffffffffa8094f15                AT_COMMON_CmdFunc_Back
                0xffffffffa8094f85                AT_COMMON_CmdFunc_Fore
                0xffffffffa8094ff5                AT_COMMON_CmdFunc_Prev
                0xffffffffa8095035                AT_COMMON_CmdFunc_Next
                0xffffffffa8095075                AT_COMMON_CmdFunc_PlayTone
                0xffffffffa80950fd                AT_COMMON_CmdFunc_Volume
                0xffffffffa80951a5                AT_COMMON_CmdFunc_VolSub
                0xffffffffa80951e5                AT_COMMON_CmdFunc_VolAdd
                0xffffffffa8095225                AT_MUSIC_CmdFunc_ModeSwitch
                0xffffffffa8095229                AT_MUSIC_Result_Err
                0xffffffffa809526d                AT_MUSIC_Result_OK
                0xffffffffa80952b1                AT_MUSIC_CmdFunc_State
                0xffffffffa809543d                AT_MUSIC_CmdFunc_Pause
                0xffffffffa809547d                AT_MUSIC_CmdFunc_Play
                0xffffffffa80954bd                _CheckITFValue
                0xffffffffa809555d                AT_EMOD_CmdFunc_CAIET
                0xffffffffa8095875                AT_EMOD_CmdFunc_CAWTF
                0xffffffffa80959f9                AT_EMOD_CmdFunc_CAMCP
                0xffffffffa8095ddd                AT_EMOD_CmdFunc_CACCP
                0xffffffffa8096229                AT_EMOD_CmdFunc_CAVCP
                0xffffffffa8096921                GetCurrentScreenId
                0xffffffffa8096945                GetHistoryGuiBuffer
                0xffffffffa8096971                GetCurrentScreenMsgHandler
                0xffffffffa8096995                InitHistory
                0xffffffffa8096a09                EntryNewScreen
                0xffffffffa8096b11                DeleteScreenIfPresent
                0xffffffffa8096bf9                BAL_DisplayMessageWithCallback
                0xffffffffa8096cad                GobackAllHistory
                0xffffffffa8096ced                GobackScreen
                0xffffffffa8096d51                ClearGuiBuffer
                0xffffffffa8096db5                BAL_DisplayMessageWithCallback_MsgHandler
                0xffffffffa8096e99                calib_GetBufferPointers
                0xffffffffa8097071                calib_GetBufferData
                0xffffffffa80970ed                calib_GetAudioMusicALCParam
                0xffffffffa809712d                calib_GetAudioMusicEQParam
                0xffffffffa8097301                calib_GetAudioVocDigGain
                0xffffffffa8097345                calib_GetAudioVocEQParam
                0xffffffffa8097389                calib_GetAudioVocNSRXParam
                0xffffffffa80973cd                calib_GetAudioVocNSTXParam
                0xffffffffa8097411                calib_GetAudioVocWebRtcAGCRXParam
                0xffffffffa8097455                calib_GetAudioVocWebRtcAGCTXParam
                0xffffffffa8097499                calib_GetAudioVocAGCRXParam
                0xffffffffa80974dd                calib_GetAudioVocAGCTXParam
                0xffffffffa8097521                calib_GetAudioVocAECParam
                0xffffffffa809756d                calib_GetAudioVocFIRRXParam
                0xffffffffa80975d5                calib_GetAudioVocFIRTXParam
                0xffffffffa809763d                calib_GetAudioVocHPFParam
                0xffffffffa8097681                calib_GetAudioMusicInGainsRecord
                0xffffffffa80976c5                calib_GetAudioCodecSidtone
                0xffffffffa8097709                calib_GetAudioCodecIngain
                0xffffffffa8097781                calib_SetBufferData
                0xffffffffa809780d                calib_SetAudioMusicEQParam
                0xffffffffa8097879                calib_SetAudioVocEQParam
                0xffffffffa80978cd                calib_SetAudioMusicALCParam
                0xffffffffa8097945                calib_SetAudioVocDigGain
                0xffffffffa80979c1                calib_SetAudioVocNSRXParam
                0xffffffffa8097a55                calib_SetAudioVocNSTXParam
                0xffffffffa8097ae9                calib_SetAudioVocWebRtcAGCRXParam
                0xffffffffa8097b71                calib_SetAudioVocWebRtcAGCTXParam
                0xffffffffa8097bf9                calib_SetAudioVocAGCRXParam
                0xffffffffa8097c81                calib_SetAudioVocAGCTXParam
                0xffffffffa8097d09                calib_SetAudioVocAECParam
                0xffffffffa8097d8d                calib_SetAudioVocFIRRXParam
                0xffffffffa8097e25                calib_SetAudioVocFIRTXParam
                0xffffffffa8097eb1                calib_SetAudioVocHPFParam
                0xffffffffa8097fd5                calib_SetAudioMusicInGainsRecord
                0xffffffffa8098045                calib_SetAudioCodecSidetone
                0xffffffffa80980ad                calib_SetAudioCodecIngain
                0xffffffffa8098119                calib_GetAudioCodecOutgains
                0xffffffffa809818d                calib_SetAudioCodecOutGains
                0xffffffffa8098279                atox
                0xffffffffa80982cd                dbg_AssertUtil

.rodata         0xffffffffa8098300    0x326c0
 build/5856T_nolcd/btcpu/RDA5856/XCPU_elf_file.elf-stripped(.rodata)
 .rodata        0xffffffffa8098300    0x326c0 build/5856T_nolcd/btcpu/RDA5856/XCPU_elf_file.elf-stripped
                0xffffffffa8098300                __thenan_df
                0xffffffffa8098318                __clz_tab
                0xffffffffa8098790                gc_halAudDacSRDivCntInteger
                0xffffffffa80993b4                sxs_TaskIdleDesc
                0xffffffffa809941c                sxs_TraceDesc
                0xffffffffa80997e8                codec_wav_tags
                0xffffffffa8099c40                G_VppCommonDecCode
                0xffffffffa8099f00                G_VppMp3DecCode
                0xffffffffa809d5e0                G_VppMp3DecConstX
                0xffffffffa809e740                G_VppMp3DecConstY
                0xffffffffa809f640                G_VppMp3Layer12Dec_DMA_ConstY
                0xffffffffa809fb00                G_VppMp3Dec_EQ_DMA_ConstY
                0xffffffffa809fc20                G_VppSBCDecCode
                0xffffffffa80a1040                G_VppSBCDecConstX
                0xffffffffa80a2e20                G_VppDRCCode
                0xffffffffa80a3780                G_VppDRCConst
                0xffffffffa80a3c10                TabinX
                0xffffffffa80a4720                TabinY
                0xffffffffa80a56a0                TabinXEND
                0xffffffffa80a57cc                HuffmanTbl
                0xffffffffa80acefc                g_SinTableForReconstruction
                0xffffffffa80b0dfc                costab
                0xffffffffa80b1dfc                wma_code_high
                0xffffffffa80b5270                wma_code_mid
                0xffffffffa80b9210                wma_code_low
                0xffffffffa80be1e0                g_rgiBarkFreq
                0xffffffffa80be214                CLSID_CAsfHeaderObjectV0
                0xffffffffa80be224                CLSID_CAsfPropertiesObjectV2
                0xffffffffa80be234                CLSID_CAsfStreamPropertiesObjectV1
                0xffffffffa80be244                CLSID_CAsfContentDescriptionObjectV0
                0xffffffffa80be254                CLSID_AsfXAcmAudioErrorMaskingStrategy
                0xffffffffa80be264                CLSID_AsfXSignatureAudioErrorMaskingStrategy
                0xffffffffa80be274                CLSID_AsfXStreamTypeAcmAudio
                0xffffffffa80be284                CLSID_CAsfContentEncryptionObject
                0xffffffffa80be294                CLSID_CAsfExtendedContentDescObject
                0xffffffffa80be2a4                CLSID_CAsfLicenseStoreObject
                0xffffffffa80be2b4                CLSID_CAsfStreamPropertiesObjectV2
                0xffffffffa80be35c                id3_tag_v2_2_frame_id_list
                0xffffffffa80be374                id3_tag_v2_3_frame_id_list
                0xffffffffa80be38c                id3_tag_v2_4_frame_id_list
                0xffffffffa80be4a0                g_vppBTSpeechMainCode
                0xffffffffa80beee0                g_vppBTAecConstantX
                0xffffffffa80bf140                g_vppBTAecCode
                0xffffffffa80c1500                g_vppNoiseSuppressCode
                0xffffffffa80c3340                g_vppNoiseSuppressConstantX
                0xffffffffa80c4240                g_vppAgcCode
                0xffffffffa80c5280                g_vppAgcConstantX
                0xffffffffa80c5420                g_vppCvsdCode
                0xffffffffa80c5900                g_vppBTSpeechMainCodeSize
                0xffffffffa80c5e30                g_UctTable
                0xffffffffa80c77b0                g_tgtSxNbCfg
                0xffffffffa80c77d4                g_tgtHalCfg
                0xffffffffa80c7860                g_tgtAudCfg
                0xffffffffa80c7a00                g_tgtPmdCfg
                0xffffffffa80c7b38                g_tgtDsmCfg
                0xffffffffa80c7bfc                BoardsetupGpioCfg
                0xffffffffa80c7cdc                g_tgtGPIOCfg
                0xffffffffa80c7d60                g_tgtKeyMap
                0xffffffffa80c7d84                g_tgtKeyCfg
                0xffffffffa80c7d90                g_tgtMcdCfg
                0xffffffffa80c7d94                g_tgtFmdCfg
                0xffffffffa80c7db0                g_tgtBtdCfg
                0xffffffffa80c7dc0                g_tgtTsdCfg
                0xffffffffa80c8108                g_LanguageList
                0xffffffffa80c8920                ExtVoice
                0xffffffffa80c8924                ExtMusic
                0xffffffffa80c8c94                _ctype
                0xffffffffa80c9210                g_pBNameList
                0xffffffffa80c925c                g_pTNameList
                0xffffffffa80c9830                g_CommandTable

.misc           0xffffffffa80ca9c0        0x8
 build/5856T_nolcd/btcpu/RDA5856/XCPU_elf_file.elf-stripped(.misc)
 .misc          0xffffffffa80ca9c0        0x8 build/5856T_nolcd/btcpu/RDA5856/XCPU_elf_file.elf-stripped
                0xffffffffa80ca9c0                g_date_and_time

.internal_rom   0xffffffffa1e00000     0x3780
 build/5856T_nolcd/stripped_rom_elf_file.elf(.internal_rom)
 .internal_rom  0xffffffffa1e00000     0x3780 build/5856T_nolcd/stripped_rom_elf_file.elf
                0xffffffffa1e00000                __xcpu_start
                0xffffffffa1e00180                _boot_IrqHandler
                0xffffffffa1e002c0                boot_HstMonitorX
                0xffffffffa1e00320                boot_DbgExlTrigFunction0
                0xffffffffa1e004c0                monitor_entry
                0xffffffffa1e004c4                initial_stack_top_var
                0xffffffffa1e004c8                boot_FlushCache
                0xffffffffa1e004e8                boot_DisableInterrupt
                0xffffffffa1e00501                mon_Event
                0xffffffffa1e00539                boot_HstCmdBasicHandler
                0xffffffffa1e00599                boot_HstMonitor
                0xffffffffa1e00605                boot_IspiOpen
                0xffffffffa1e006e5                boot_IspiSendData
                0xffffffffa1e00741                boot_IspiTxFifoAvail
                0xffffffffa1e0075d                boot_IspiTxFinished
                0xffffffffa1e00789                boot_UsbIspiWrite
                0xffffffffa1e007c5                boot_UsbPHYEnable
                0xffffffffa1e007ec                g_bootIspiRomedCfg
                0xffffffffa1e00811                boot_MonitorDoMonitoring
                0xffffffffa1e00945                boot_Monitor
                0xffffffffa1e00a05                hal_GetK1
                0xffffffffa1e00a0c                boot_romCsString
                0xffffffffa1e00a3d                musb_select_ep_rom
                0xffffffffa1e00a51                musb_write_fifo_rom
                0xffffffffa1e00acd                musb_read_fifo_rom
                0xffffffffa1e00b49                boot_mgc_usb_highSpeed
                0xffffffffa1e00bf1                boot_UsbResetTransfert
                0xffffffffa1e00c19                boot_UsbCancelTransfert
                0xffffffffa1e00f0d                boot_SetIOMux
                0xffffffffa1e00f49                boot_usbinitclockenable
                0xffffffffa1e01001                boot_UsbInitVar
                0xffffffffa1e01029                boot_musb_g_rx
                0xffffffffa1e010ed                boot_musb_g_tx
                0xffffffffa1e011a9                boot_musb_start
                0xffffffffa1e011ed                boot_UsbOpen
                0xffffffffa1e01215                boot_UsbEpStall
                0xffffffffa1e01219                boot_UsbRecv
                0xffffffffa1e01261                boot_UsbSend
                0xffffffffa1e01311                boot_UsbCompletedCommand
                0xffffffffa1e01339                boot_UsbEpEnableInterrupt
                0xffffffffa1e01389                boot_UsbEpRxTransferedSize
                0xffffffffa1e0139d                boot_UsbEpTransfertDone
                0xffffffffa1e013b9                boot_UsbClose
                0xffffffffa1e013ed                boot_UsbReset
                0xffffffffa1e01415                boot_UsbIrqHandler
                0xffffffffa1e01c25                boot_HostUsbDeviceCallback
                0xffffffffa1e01c31                boot_HostUsbClockEnable
                0xffffffffa1e01c69                boot_HostUsbClose
                0xffffffffa1e01c79                boot_HostUsbInit
                0xffffffffa1e01cdd                boot_HostUsbOpen
                0xffffffffa1e01d11                boot_HostUsbSend
                0xffffffffa1e01e6d                boot_HostUsbEvent
                0xffffffffa1e0230d                boot_HostUsbRecv
                0xffffffffa1e023d0                boot_HostUsbInterface
                0xffffffffa1e02451                boot_IrqDispatch
                0xffffffffa1e02481                hal_TimDelay
                0xffffffffa1e024a0                sxr_TaskSwap
                0xffffffffa1e02571                sxr_Sleep
                0xffffffffa1e025c5                sxr_Wait
                0xffffffffa1e026f1                sxr_Send
                0xffffffffa1e02835                sxr_Tampax
                0xffffffffa1e0298d                sxr_SetTimer
                0xffffffffa1e02b75                _sxr_StartFunctionTimer
                0xffffffffa1e02ba5                sxr_RmvFromSuspendedQueue
                0xffffffffa1e02c09                sxr_RunNextTask
                0xffffffffa1e02cd5                sxr_SuspendTask
                0xffffffffa1e02d6d                sxr_WakeUpTask
                0xffffffffa1e02ea5                sxr_ResumeTask
                0xffffffffa1e02ef9                sxr_ChkSbx
                0xffffffffa1e02f29                sxr_CheckSbx
                0xffffffffa1e03035                memd_FlashWriteInProgress
                0xffffffffa1e0307d                spi_flash_write
                0xffffffffa1e03145                memd_FlashWrite
                0xffffffffa1e03279                spi_flash_sector_erase_nosuspend
                0xffffffffa1e032e1                spi_flash_sector_erase
                0xffffffffa1e032f5                spi_flash_block_erase
                0xffffffffa1e03371                memd_FlashErase
                0xffffffffa1e03441                hal_FlashCacheOn
                0xffffffffa1e03475                hal_FlashCacheOff
                0xffffffffa1e03491                hal_SpiFlashDisableRead
                0xffffffffa1e034b1                hal_SpiFlashEnableRead
                0xffffffffa1e034cd                hal_SpiFlashPushTxFifoData
                0xffffffffa1e03515                hal_SpiFlashGetRxData
                0xffffffffa1e03545                hal_SpiFlashClearFifoData
                0xffffffffa1e0356d                hal_SpiFlashSendCmd
                0xffffffffa1e035d9                hal_TimGetUpTime
                0xffffffffa1e035e5                memcpy
                0xffffffffa1e03765                strlen

.sys_rom        0xffffffffa1e03780      0x850
 build/5856T_nolcd/stripped_rom_elf_file.elf(.sys_rom)
 .sys_rom       0xffffffffa1e03780      0x850 build/5856T_nolcd/stripped_rom_elf_file.elf
                0xffffffffa1e03905                vsnprintf
                0xffffffffa1e03c9d                sprintf
                0xffffffffa1e03cb9                tgt_GetSxNbConfig
                0xffffffffa1e03cc5                memmove
                0xffffffffa1e03dbd                __divsf3
                0xffffffffa1e03e80                __thenan_sf
                0xffffffffa1e03e91                __pack_f
                0xffffffffa1e03f55                __unpack_f

.rom_entries_uncached
                0xffffffffa1c000a0       0x18
 build/5856T_nolcd/stripped_rom_elf_file.elf(.rom_entries_uncached)
 .rom_entries_uncached
                0xffffffffa1c000a0       0x18 build/5856T_nolcd/stripped_rom_elf_file.elf
                0xffffffffa1c000a0                _hstMonitorXCtx_start
                0xffffffffa1c000a0                boot_HstMonitorXCtx
                0xffffffffa1c000b4                boot_HstMonitorExtendedHandler

.rom_entries_cached
                0xffffffffa1c000b8       0x48
 build/5856T_nolcd/stripped_rom_elf_file.elf(.rom_entries_cached)
 .rom_entries_cached
                0xffffffffa1c000b8       0x48 build/5856T_nolcd/stripped_rom_elf_file.elf
                0xffffffffa1c000b8                xcpu_error_code
                0xffffffffa1c000bc                xcpu_error_status
                0xffffffffa1c000c0                xcpu_sp_context
                0xffffffffa1c000c4                sxr_IrqStack_pointer
                0xffffffffa1c000c8                g_bootResetCause
                0xffffffffa1c000cc                g_bootBootMode
                0xffffffffa1c000d0                g_bootUartMonitorBrDetected
                0xffffffffa1c000d4                g_bootUartMonitorBaudRate

.rom_inter_ram  0xffffffffa1c00100      0x140
 build/5856T_nolcd/stripped_rom_elf_file.elf(.rom_inter_ram)
 .rom_inter_ram
                0xffffffffa1c00100      0x140 build/5856T_nolcd/stripped_rom_elf_file.elf
                0xffffffffa1c00100                sxr_SemaInfo
                0xffffffffa1c00100                _sys_rom_bss_start
                0xffffffffa1c00104                sxr_Sbx
                0xffffffffa1c0011c                sxr_Task
                0xffffffffa1c00128                sxr_TEnv
                0xffffffffa1c00130                sxr_TCtx
                0xffffffffa1c00134                SXR_Nb_Max_Timer_Enveloppe
                0xffffffffa1c00138                sxs_FileCtx
                0xffffffffa1c0013a                sxs_StdErr
                0xffffffffa1c0013c                g_memdFlashBaseAddress
                0xffffffffa1c00140                RUN_Status
                0xffffffffa1c00154                NOT_SUSPEND
                0xffffffffa1c00158                g_memdFlashLayout
                0xffffffffa1c00174                g_halCfg
                0xffffffffa1c00178                g_pPrintf_ROM
                0xffffffffa1c0017c                g_BootUsbVar
                0xffffffffa1c00230                g_pTgtSxCfg

.rom_inter_data
                0xffffffffa1c00240       0x10 load address 0xffffffffa1e03fd0
 build/5856T_nolcd/stripped_rom_elf_file.elf(.rom_inter_data)
 .rom_inter_data
                0xffffffffa1c00240       0x10 build/5856T_nolcd/stripped_rom_elf_file.elf
                0xffffffffa1c00240                g_halSysTcuRunningAt26M
                0xffffffffa1c00244                g_halSysCsAddress
                0xffffffffa1c00248                g_spiflash_pagesize
                0xffffffffa1c0024c                g_dif_opcode_high_p_mode
                0xffffffffa1c0024d                g_dif_opcode_write
                0xffffffffa1c0fffc                _sys_sram_non_romed_top

.boot_rom_version_number
                0xffffffffa1e03ff8        0x4
 build/5856T_nolcd/stripped_rom_elf_file.elf(.boot_rom_version_number)
 .boot_rom_version_number
                0xffffffffa1e03ff8        0x4 build/5856T_nolcd/stripped_rom_elf_file.elf
                0xffffffffa1e03ff8                _int_rom_version_number
                0xffffffffa1e03ff8                g_bootRomVersionNumber

.internal_rom.crc
                0xffffffffa1e03ffc        0x4
 build/5856T_nolcd/stripped_rom_elf_file.elf(.internal_rom.crc)
 .internal_rom.crc
                0xffffffffa1e03ffc        0x4 build/5856T_nolcd/stripped_rom_elf_file.elf
                0xffffffffa1e03ffc                __int_rom_crc

.btcpu_rom      0xffffffffa1e80000     0xfe40
 build/5856T_nolcd/btcpu/RDA5856/stripped_BTCPU_rom_elf_file.elf(.btcpu_rom)
 .btcpu_rom     0xffffffffa1e80000     0xfe40 build/5856T_nolcd/btcpu/RDA5856/stripped_BTCPU_rom_elf_file.elf
                0xffffffffa1e80000                __btcpu_start
                0xffffffffa1e80080                __btcpu_init
                0xffffffffa1e80180                __btcpu_int_handler
                0xffffffffa1e80195                LSLCirq_Disable_All_Intr_Except
                0xffffffffa1e801c1                LSLCirq_R2P_Turn_On_Intr
                0xffffffffa1e801e5                LSLCirq_R2P_Clear_All_Intr
                0xffffffffa1e80201                LSLCirq_Disable_And_Clear_Tabasco_Intr
                0xffffffffa1e80211                LSLCirq_Enable_Aux_Tim_Intr
                0xffffffffa1e8022d                LSLCirq_Disable_Aux_Tim_Intr
                0xffffffffa1e80245                LSLCirq_ARM_COMMOM_INT_Handler
                0xffffffffa1e80269                LSLCirq_BT_TIM0_Handler
                0xffffffffa1e802bd                LSLCirq_BT_TIM1_Handler
                0xffffffffa1e80311                LSLCirq_BT_TIM2_Handler
                0xffffffffa1e8036d                LSLCirq_BT_TIM3_Handler
                0xffffffffa1e803c1                LSLCirq_BT_AUX_TIM_Handler
                0xffffffffa1e80411                LSLCirq_BT_PKA_Handler
                0xffffffffa1e80465                LSLCirq_BT_NO_PKT_RCVD_Handler
                0xffffffffa1e804b5                LSLCirq_BT_PKD_Handler
                0xffffffffa1e8050d                LSLCirq_BT_PKD_RX_HDR_Handler
                0xffffffffa1e8055d                LSLCirq_BT_SYNC_DET_Handler
                0xffffffffa1e805ad                LSLCpkt_Get_Active_Rx_Device_Link_Ref
                0xffffffffa1e805b9                LSLCpkt_Get_Active_Tx_Device_Link_Ref
                0xffffffffa1e805c5                _LSLCpkt_Prepare_Piconet_Channel_Access
                0xffffffffa1e806c9                LSLCpkt_Generate_POLL
                0xffffffffa1e806f5                LSLCpkt_Generate_NULL
                0xffffffffa1e80721                LSLCpkt_Generate_DV
                0xffffffffa1e8075d                LSLCpkt_Generate_ACL
                0xffffffffa1e807c1                LSLCpkt_Generate_SCO
                0xffffffffa1e80859                LSLCpkt_Generate_EIR
                0xffffffffa1e808e9                LSLCpkt_Generate_FHS_Common_
                0xffffffffa1e80969                LSLCpkt_Generate_FHS_Ex
                0xffffffffa1e8099d                LSLCpkt_Generate_FHS
                0xffffffffa1e809c9                LSLCpkt_Generate_ID
                0xffffffffa1e80a1d                LSLCpkt_Process_Rx_Packet
                0xffffffffa1e80a7d                LSLCpkt_Process_No_Rx_Packet
                0xffffffffa1e80a9d                LSLCpkt_Process_Rx_Packet_Header
                0xffffffffa1e80ac1                LSLCpkt_Prepare_Receiver_Return_To_Piconet
                0xffffffffa1e80b39                LSLCpkt_Prepare_Receiver_Master_Slave_Switch
                0xffffffffa1e80b6d                LSLCpkt_Prepare_Receiver_Connection
                0xffffffffa1e80ba5                LSLCpkt_Prepare_Receiver_EIR
                0xffffffffa1e80be1                LSLCpkt_Prepare_Receiver_FHS
                0xffffffffa1e80c65                LSLCpkt_Prepare_Receiver_ID
                0xffffffffa1e80c99                LSLCpkt_Disable_Receiver
                0xffffffffa1e80cb1                _LSLCslot_Handle_Rx_Interrupt_Error
                0xffffffffa1e80cd5                LSLCslot_Switch_Slot
                0xffffffffa1e80cf1                LSLCslot_Write_BT_Clk_Avoid_Race
                0xffffffffa1e80d45                LSLCslot_Handle_AUX_TIM
                0xffffffffa1e80d55                LSLCslot_Handle_SYNC_DET
                0xffffffffa1e80da1                LSLCslot_Handle_TIM2
                0xffffffffa1e81039                LSLCslot_Handle_TIM3
                0xffffffffa1e810f9                LSLCslot_Handle_TIM1
                0xffffffffa1e81171                LSLCslot_Handle_TIM0
                0xffffffffa1e813c1                LSLCslot_Handle_PKD_RX_HDR
                0xffffffffa1e81585                LSLCslot_Handle_NO_PKT_RCVD
                0xffffffffa1e8167d                LSLCslot_Handle_PKD
                0xffffffffa1e81821                LSLCslot_Handle_PKA
                0xffffffffa1e81981                _SHA_256_Chunk
                0xffffffffa1e81bbd                _SHA_256_Finish
                0xffffffffa1e81bf5                _Mod2_Multiply_Kc
                0xffffffffa1e81cb1                _Mod2_Reduce_Kc
                0xffffffffa1e81ded                _Byte_To_Reg_Array
                0xffffffffa1e81e41                _SHA_256_Step
                0xffffffffa1e81f51                LM_SecEng_Generate_Number
                0xffffffffa1e82009                _Byte_To_Reg_KC
                0xffffffffa1e82039                _Reg_To_Byte_KC
                0xffffffffa1e82065                LM_SecEng_Generate_Kc_Prime
                0xffffffffa1e820dc                SHA_256_k
                0xffffffffa1e822cd                HWdelay_Wait_For_us
                0xffffffffa1e822f1                HWdelay_Wait_For_Serial_Interface_Idle
                0xffffffffa1e82301                HWdelay_Wait_For_Serial_Interface_Busy_us
                0xffffffffa1e82329                BTq_Is_Queue_Not_Full
                0xffffffffa1e82389                BTq_Is_Queue_Empty
                0xffffffffa1e823a9                BTq_Get_Last_Enqueue
                0xffffffffa1e823cd                BTq_Dequeue_Next_Data_By_Length
                0xffffffffa1e8240d                BTq_Lelc_Get_Total_Num_Of_Queues
                0xffffffffa1e82435                BTq_Ack_Last_Dequeued
                0xffffffffa1e825b9                BTq_BB_Dequeue_Next_Synchronous
                0xffffffffa1e82655                BTq_Commit
                0xffffffffa1e826d9                BTq_Enqueue
                0xffffffffa1e82881                BTq_Reduce_Queue_Number_Of_Processed_Chunks
                0xffffffffa1e82901                BTq_LELC_BB_Dequeue_Next
                0xffffffffa1e82991                BTq_BB_Dequeue_Next
                0xffffffffa1e82b39                _Insert_Uint16
                0xffffffffa1e82b49                _Insert_Uint32
                0xffffffffa1e82b5d                _Insert_Bd_Addr_In_PDU
                0xffffffffa1e82b79                HCeg_Encode_Event
                0xffffffffa1e82c01                HCeg_Inquiry_Result_Event
                0xffffffffa1e82c9d                HCeg_Generate_Event
                0xffffffffa1e83035                HCeg_Hardware_Error_Event
                0xffffffffa1e8305c                hc_event_param_len
                0xffffffffa1e8309c                hc_format_events
                0xffffffffa1e830ac                hc_event_format
                0xffffffffa1e830f5                LMch_CB_Enable_L2CAP_Traffic
                0xffffffffa1e83131                LMaclctr_Find_Device_Index
                0xffffffffa1e83145                LMaclctr_Find_Handle
                0xffffffffa1e83185                LMpol_Update_Poll_interval
                0xffffffffa1e831c9                LMpol_Get_Next_SCO_Link
                0xffffffffa1e8321d                LMpol_Get_Slots_To_Next_SCO_Frame
                0xffffffffa1e83279                LMpol_Get_device_Interval_To_Next_Wakeup
                0xffffffffa1e832b9                LMpol_Get_Interval_To_Next_Wakeup
                0xffffffffa1e83301                LMpol_Adjust_Wakeup_Slot_Time
                0xffffffffa1e834e1                LMpol_Service_Imminent_Wakeup_Control
                0xffffffffa1e83595                LMscoctr_Get_Number_SYN_Connections
                0xffffffffa1e835ad                LMscoctr_Find_SCO_By_SCO_Index
                0xffffffffa1e835c5                LMconfig_LM_Set_Device_State
                0xffffffffa1e83611                LMscan_Read_Scan_Enable
                0xffffffffa1e8361d                LMinq_Get_Inquiry_Result_Mode
                0xffffffffa1e83629                LMtmr_Delist_Timer
                0xffffffffa1e83691                SYStmr_Clear_Timer
                0xffffffffa1e836d9                LLtmr_Clear_Timer
                0xffffffffa1e836ed                LMtmr_Clear_Timer
                0xffffffffa1e83701                LMtmr_Enlist_Timer
                0xffffffffa1e83789                SYStmr_Reset_Timer
                0xffffffffa1e83819                LLtmr_Reset_Timer
                0xffffffffa1e8382d                SYStmr_Set_Timer
                0xffffffffa1e838fd                LLtmr_Set_Timer
                0xffffffffa1e83915                LMutils_Set_Uint32
                0xffffffffa1e83929                LMafh_LM_Read_AFH_Channel_Assessment_Mode
                0xffffffffa1e8394d                LMafh_Is_Classification_Reporting
                0xffffffffa1e83975                LLutils_Set_Bd_Addr
                0xffffffffa1e83985                LLutils_Bd_Addr_Match1
                0xffffffffa1e839d5                LLutils_Get_Bd_Addr
                0xffffffffa1e839f1                LLutils_Bd_Addr_Match
                0xffffffffa1e83a15                LLutils_Array_Copy
                0xffffffffa1e83a2d                LLutils_Get_Uint16
                0xffffffffa1e83a3d                LLutils_Get_Uint24
                0xffffffffa1e83a51                LLutils_Get_Uint32
                0xffffffffa1e83a6d                LLutils_Set_Uint16
                0xffffffffa1e83a7d                LC_Get_Device_FHS_Ref
                0xffffffffa1e83a89                LC_Report_Device_Activity
                0xffffffffa1e83aa9                LC_Get_Piconet_Clock_Ex
                0xffffffffa1e83b0d                LC_Wakeup
                0xffffffffa1e83b55                LSLCass_Is_Assessment_State
                0xffffffffa1e83b8d                LSLCass_Record_Rx_RSSI_Channel
                0xffffffffa1e83be9                LSLCass_Record_No_Rx_Packet
                0xffffffffa1e83c55                LSLCass_Record_Rx_HEC_Event_Channel
                0xffffffffa1e83cb5                LSLCass_Record_Rx_CRC_Event_Channel
                0xffffffffa1e83d15                LSLCclk_Is_Safe_To_Read_Native_Clk
                0xffffffffa1e83d41                LSLCclk_Wait_For
                0xffffffffa1e83d85                LSLCfreq_Get_Frequency
                0xffffffffa1e83d91                LSLCfreq_Get_Last_Frequency_Clock
                0xffffffffa1e83d9d                LSLCfreq_Assign_Frequency_Kernel
                0xffffffffa1e83dd5                LSLCfreq_Prepare_Frequency_Connection
                0xffffffffa1e83f0d                LSLCfreq_Prepare_Rx_Frequency_R2P
                0xffffffffa1e83f81                LSLCfreq_Early_Prepare_TxRxFreqs_SlavePageResponse
                0xffffffffa1e83fad                LSLCfreq_Prepare_Frequency_EIR
                0xffffffffa1e83ff5                LSLCfreq_Prepare_Frequency_Context
                0xffffffffa1e84229                LSLCfreq_Early_Prepare_Frequency_FHS_Response_ID
                0xffffffffa1e8427d                LSLChop_Get_Frequency_Channel_Connection
                0xffffffffa1e84295                LSLChop_Build_Hop_Kernel
                0xffffffffa1e84371                LSLChop_Get_Next_Frequency
                0xffffffffa1e84521                LSLChop_Get_Table_Frequency_Page_FHS_Response_ID
                0xffffffffa1e84541                LSLChop_Get_TxRxFreqs_SlavePageResponse
                0xffffffffa1e8457d                LSLChop_Set_Train
                0xffffffffa1e84589                LSLChop_Toggle_Train
                0xffffffffa1e8459d                LSLChop_Get_X
                0xffffffffa1e845b1                LSLChop_Freeze_X_for_Page
                0xffffffffa1e845cd                LSLChop_Set_X_for_Inquiry
                0xffffffffa1e845e9                LSLChop_Increment_X_Page_Scan
                0xffffffffa1e845f9                LSLChop_Increment_N_Inquiry_Scan
                0xffffffffa1e84609                LSLChop_Get_HSE_Engine
                0xffffffffa1e84614                _LSLChop_Inquiry_Frequency_Table_79hop
                0xffffffffa1e84655                bt_rx_test_calc_bit_error
                0xffffffffa1e84715                LSLCacc_Set_Am_Addr
                0xffffffffa1e8472d                LSLCacc_Prepare_Tx_ID
                0xffffffffa1e847ad                LSLCacc_Prepare_Tx_Rx_Encryption
                0xffffffffa1e847bd                LSLCacc_Sync_Setup_SCO_CFG_Ex
                0xffffffffa1e84825                LSLCacc_Prepare_Rx_ID
                0xffffffffa1e848a5                LSLCacc_Prepare_Tx_Rx_EIR
                0xffffffffa1e84935                LSLCacc_Prepare_Rx_Return_To_Piconet
                0xffffffffa1e8494d                LSLCacc_Prepare_Rx_Connection
                0xffffffffa1e8495d                LSLCacc_Build_AccessCode
                0xffffffffa1e8496d                LSLCacc_Build_EIR_Header
                0xffffffffa1e849ad                LSLCacc_Build_EIR_Payload
                0xffffffffa1e849e1                LSLCacc_Build_ACL_Payload
                0xffffffffa1e84a81                _LSLCacc_Move_CC_Shadow_to_Hardware
                0xffffffffa1e84b35                LSLCacc_Discard_SCO_Payload
                0xffffffffa1e84b41                LSLCacc_Disable_Receiver
                0xffffffffa1e84b69                LSLCacc_Extract_FHS_Payload
                0xffffffffa1e84b85                LSLCacc_Extract_EIR_Payload
                0xffffffffa1e84bc5                LSLCacc_Enable_Low_Power_Mode
                0xffffffffa1e84bd5                LSLCacc_Disable_Low_Power_Mode
                0xffffffffa1e84be9                LSLCacc_Process_RSSI
                0xffffffffa1e84c61                LSLCacc_Attempt_RSSI_Read
                0xffffffffa1e84c7d                LSLCacc_Process_Rx_Header
                0xffffffffa1e84ec5                _LSLCacc_Process_Rx_CRC
                0xffffffffa1e850f1                LSLCacc_Enable_Receiver
                0xffffffffa1e85195                LSLCacc_Disable_Transmitter
                0xffffffffa1e851ed                LSLCacc_Enable_Transmitter
                0xffffffffa1e852b9                _LSLCacc_Loopback_Testmode_Payload
                0xffffffffa1e8549d                LSLCacc_Build_SCO_Payload
                0xffffffffa1e856b1                LSLCacc_Build_FHS_Payload_Ex
                0xffffffffa1e85721                LSLCacc_Build_FHS_Payload
                0xffffffffa1e85739                _LSLCacc_Prepare_Tx_Complete_If_Same_Device
                0xffffffffa1e8582d                _LSLCacc_Extract_Payload
                0xffffffffa1e85c51                LSLCacc_Process_No_Rx_Packet
                0xffffffffa1e85c89                LSLCacc_Extract_Packet
                0xffffffffa1e85df5                LSLCacc_Build_PacketHeader
                0xffffffffa1e85edd                LSLCacc_Prepare_Tx_Rx_Connection
                0xffffffffa1e86175                LSLCacc_Prepare_Tx_Rx_FHS
                0xffffffffa1e86275                LSLCacc_Prepare_Rx_FHS
                0xffffffffa1e8629d                lslc_acc_bbtest_Tim2
                0xffffffffa1e86339                lslc_acc_bbtest_pka
                0xffffffffa1e863b1                BT_start_rx_test_end
                0xffffffffa1e86489                bt_rx_Test_process_packet
                0xffffffffa1e865d1                bt_rx_Test_receive_hdr
                0xffffffffa1e866e1                LSLCafh_Backup_AFH_Link_State
                0xffffffffa1e866f9                LSLCafh_Restore_AFH_Link_State
                0xffffffffa1e86711                LSLCafh_Get_Frequency_Channel
                0xffffffffa1e86801                LSLCafh_Assign_AFH_Kernel
                0xffffffffa1e86851                USLCchac_Is_Inquiry_Scan_Rand_Wait
                0xffffffffa1e86861                USLCchac_Set_Device_State
                0xffffffffa1e8686d                USLCchac_Get_Chan_Devicelink
                0xffffffffa1e86885                USLCchac_Procedure_Start
                0xffffffffa1e86931                USLCchac_Set_Active_Procedure
                0xffffffffa1e8693d                USLCchac_Get_Active_Procedure
                0xffffffffa1e86949                USLCchac_Wakeup
                0xffffffffa1e86959                USLCchac_Procedure_Finish
                0xffffffffa1e869cd                USLCchac_Procedure_Request
                0xffffffffa1e86ac9                USLCchac_get_device_state
                0xffffffffa1e86afd                USLCchac_prepare_next_master_frame_activity
                0xffffffffa1e86b75                USLCchac_prepare_next_slave_frame_activity
                0xffffffffa1e86bd9                USLCchac_Process_Rx
                0xffffffffa1e86c9d                USLCchac_Is_Procedure_Separable
                0xffffffffa1e86ce5                USLCchac_prepareRx
                0xffffffffa1e86dd1                USLCchac_get_next_frame_activity
                0xffffffffa1e86f05                USLCsched_Set_Software_Test_Values
                0xffffffffa1e86f7d                USLCsched_Get_Next_Frame_Activity
                0xffffffffa1e86f89                USLCsched_Set_Next_Frame_Activity
                0xffffffffa1e86f95                USLCsched_Get_Current_Frame_Activity
                0xffffffffa1e86fa1                USLCsched_Get_Next_Device_Link
                0xffffffffa1e86fad                _USLCsched_Find_Next_ACL_Link
                0xffffffffa1e87051                _USLCsched_Get_Next_Segment_Activity
                0xffffffffa1e870dd                USLCsched_Set_Next_Device_Link
                0xffffffffa1e87149                _USLCsched_Prepare_Next_Frame_Activity
                0xffffffffa1e8730d                USLCsched_Prepare_Rx
                0xffffffffa1e873d1                _USLCsched_Switch_Link
                0xffffffffa1e87639                _USLCsched_Get_Next_Frame_Activity
                0xffffffffa1e87945                USLCsched_Process_Rx
                0xffffffffa1e87ab9                USLCsched_Rx_Start
                0xffffffffa1e87b75                USLCsched_Tx_Complete
                0xffffffffa1e87bdd                USLCsched_Prepare_Tx
                0xffffffffa1e87dc1                USLCsched_Tx_Start
                0xffffffffa1e87efd                USLCtm_Get_Packet_Type
                0xffffffffa1e87f09                USLCtm_Test_Transmitter
                0xffffffffa1e87fe9                USLCtm_prepareTx
                0xffffffffa1e88015                USLCinq_Is_Extended_State
                0xffffffffa1e88029                _USLCinq_Extract_EIR
                0xffffffffa1e88089                _USLCinq_Extract_FHS
                0xffffffffa1e881c9                _USLCinq_Generate_ID
                0xffffffffa1e881fd                USLCinq_Inquiry
                0xffffffffa1e8831d                _USLCinqScan_Generate_EIR
                0xffffffffa1e88355                _USLCinqScan_Generate_FHS
                0xffffffffa1e883b1                _USLCinqScan_OS_START
                0xffffffffa1e88431                USLCinqScan_Cancel
                0xffffffffa1e884e1                USLCinqScan_Inquiry_Scan
                0xffffffffa1e886b1                _USLCpage_Setup_DL_to_CAC
                0xffffffffa1e886e5                _USLCpage_Resume_Paging
                0xffffffffa1e88719                _USLCpage_Generate_ID
                0xffffffffa1e8874d                USLCpage_Page
                0xffffffffa1e88a01                USLCpageScan_Cancel
                0xffffffffa1e88a19                _USLCpageScan_Process_ID_Pkt_During_Scanning
                0xffffffffa1e88a51                _USLCpageScan_OS_START
                0xffffffffa1e88ae9                USLCpageScan_Page_Scan
                0xffffffffa1e88f2d                USLCmss_Slave_A_Perform_TDD_Switch_
                0xffffffffa1e88fa5                USLCmss_Cancel
                0xffffffffa1e88fd5                USLCmss_State_Dispatcher
                0xffffffffa1e897b9                USLCsleep_Restore_BT_Clock
                0xffffffffa1e89831                USLCsleep_State_Dispatcher
                0xffffffffa1e89a45                USLCsleep_Wakeup
                0xffffffffa1e89a61                USLCr2p_Read_R2P_Search_Window_num
                0xffffffffa1e89a6d                USLCr2p_Get_Search_Window_Frames
                0xffffffffa1e89b41                USLCr2p_State_OS_RECONNECTING_
                0xffffffffa1e89c95                USLCr2p_State_OS_START_
                0xffffffffa1e89d75                USLCr2p_Cancel
                0xffffffffa1e89d99                USLCr2p_State_Dispatcher
                0xffffffffa1e89df9                USLCr2p_Request
                0xffffffffa1e89e7c                uslc_r2p_state_jump_table_
                0xffffffffa1e89e8d                USLCsp_Get_Activated_Device_Index
                0xffffffffa1e89e99                USLCsp_Get_Activated_Piconet_Index
                0xffffffffa1e89ea5                _USLCsp_Switch_Piconet_Clock
                0xffffffffa1e89edd                USLCsp_Set_Activated_Device_Index
                0xffffffffa1e89ef9                USLCsp_Switch_Link
                0xffffffffa1e8a069                DL_Alloc_Am_Addr
                0xffffffffa1e8a0a1                DL_Free_Am_Addr
                0xffffffffa1e8a0b5                DL_Get_Device_Ref
                0xffffffffa1e8a0d1                DL_Free_Piconet_Index
                0xffffffffa1e8a0ed                DL_Use_Local_Tx_Descriptor
                0xffffffffa1e8a0f9                DL_Assign_Piconet_Index
                0xffffffffa1e8a151                DL_Reset_New_Connection
                0xffffffffa1e8a1ed                Lelcacc_Set_Lectrlreg
                0xffffffffa1e8a25d                Lelcacc_Set_Lectrlexreg
                0xffffffffa1e8a2fd                Lelcacc_set_txon_standby
                0xffffffffa1e8a321                Lelcacc_set_rxon_standby
                0xffffffffa1e8a345                Lelcacc_set_txrxon_standby
                0xffffffffa1e8a39d                Lelcacc_Process_Pkd_Header
                0xffffffffa1e8a495                Lelcacc_Process_Rx_Advert_Packet
                0xffffffffa1e8a4dd                Lelcacc_Copy_Tx_Data_Advert
                0xffffffffa1e8a50d                Lelcacc_Generate_Packet_Connreq
                0xffffffffa1e8a571                Lelcacc_Set_Cipher_Input_Data
                0xffffffffa1e8a591                Lelcacc_Set_Cipher_Packet_Cnt_Low
                0xffffffffa1e8a59d                Lelcacc_Start_Cipher_Ctrl_Reg
                0xffffffffa1e8a615                Lelcacc_Stop_Cipher_Ctrl_Reg
                0xffffffffa1e8a629                Lelcacc_Check_Data_Valid
                0xffffffffa1e8a641                Lelcacc_test_tx_packet_pka
                0xffffffffa1e8a66d                Lelcacc_Wait_Cipher_Done
                0xffffffffa1e8a691                Lelcacc_test_Set_Advert_Lecrcreg
                0xffffffffa1e8a701                Lelc_prepare_receive_test_packet
                0xffffffffa1e8a7c5                Lelcacc_test_rx_packet_pkd
                0xffffffffa1e8a7f9                Lelcacc_Get_Cipher_Output_Data
                0xffffffffa1e8a815                Lelcacc_Copy_Tx_Data
                0xffffffffa1e8a89d                Lelcacc_Extract_Packet
                0xffffffffa1e8a919                Lelcacc_Classify_Packet
                0xffffffffa1e8a9c9                Lelcacc_Process_Rx_Data_Packet
                0xffffffffa1e8aa9d                Lelcacc_Process_Rx_Packet
                0xffffffffa1e8aae1                Lelcacc_Set_Lecrcreg
                0xffffffffa1e8ab39                Lelcacc_Prepare_Packet
                0xffffffffa1e8ac1d                Lelcacc_Generate_Packet_Data
                0xffffffffa1e8ac41                Lelcacc_Generate_Packet_Null
                0xffffffffa1e8ac71                Lelcacc_Prepare_Receive_Advert_Rsp
                0xffffffffa1e8ad21                Lelcacc_Prepare_Receive_Data_Packet
                0xffffffffa1e8ae7d                Lelcacc_Prepare_Receive_Advert
                0xffffffffa1e8aef5                Lelcacc_Generate_Packet_Scanrsp
                0xffffffffa1e8af69                Lelcacc_Generate_Packet_Scanreq
                0xffffffffa1e8afed                Lelcacc_Generate_Packet_Advert
                0xffffffffa1e8b07d                Lelcfreq_Init_DL_Channel_Para
                0xffffffffa1e8b0ed                Lelcfreq_Get_Connect_Event_Channel_Index
                0xffffffffa1e8b129                Lelcfreq_Prepare_Next_Unmap_Channel
                0xffffffffa1e8b149                Lelcfreq_Get_Freq_From_Index
                0xffffffffa1e8b181                Lelc_Set_Chan_state
                0xffffffffa1e8b1d9                Lelcchan_Set_Advert_idle
                0xffffffffa1e8b1ed                Lelcchan_Set_Init_idle
                0xffffffffa1e8b201                Lelc_Get_Chan_State
                0xffffffffa1e8b20d                Lelc_Set_Init_Req
                0xffffffffa1e8b219                Lelcchan_get_next_frame_chan_activity
                0xffffffffa1e8b26d                Lelcchan_Is_Chan_Uninterruptable
                0xffffffffa1e8b289                Lelcchan_Quit_Adv_Scan_For_Conn
                0xffffffffa1e8b301                Lelcchan_process_advert_tim2
                0xffffffffa1e8b395                Lelcchan_process_advert_pkd_nopkd
                0xffffffffa1e8b3dd                Lelcchan_process_advert_pka
                0xffffffffa1e8b421                Lelcinit_Check_State_Idle
                0xffffffffa1e8b431                Lelcinit_Optimize_Conn_Win_Offset
                0xffffffffa1e8b49d                Lelcinit_receive_pkt_check
                0xffffffffa1e8b509                Lelcinit_Prepare_Scan
                0xffffffffa1e8b551                Lelcinit_wait_for_next_scan
                0xffffffffa1e8b585                Lelcinit_Init
                0xffffffffa1e8b5a5                Lelcinit_Stop
                0xffffffffa1e8b5c1                Lelcinit_init_scan
                0xffffffffa1e8b7f5                LelcConn_Set_Current_Active_Link
                0xffffffffa1e8b801                LelcConn_Get_Current_Active_Link
                0xffffffffa1e8b80d                LelcConn_Check_Last_Window_Windening
                0xffffffffa1e8b85d                LelcConn_Adjust_Slave_Anchorpoint_Clock
                0xffffffffa1e8b8b5                Lelcconn_Get_Connect_Next_Anchorpoint_except
                0xffffffffa1e8b93d                LelcConn_Forward_Anchor_Point
                0xffffffffa1e8b991                LelcConn_Check_Queue_Empty
                0xffffffffa1e8b9b5                Lelc_Get_Link_Tx_Activity
                0xffffffffa1e8ba61                Lelcconn_Process_Master_Anchorpoint_start
                0xffffffffa1e8babd                Lelc_Wait_For_Next_Anchor_Point
                0xffffffffa1e8bb69                Lelcconn_Process_Event_Nopkd
                0xffffffffa1e8bbc5                Lelcconn_Process_Event_Pkd
                0xffffffffa1e8bd4d                Lelcconn_Process_Event_Pka
                0xffffffffa1e8bdbd                Lelc_Check_Pka_Missed
                0xffffffffa1e8be05                Lelcconn_Process_Event_Tim
                0xffffffffa1e8bf35                LelcConn_Channel_Map_Update_Check
                0xffffffffa1e8bf75                LelcConn_Connection_Update_Check
                0xffffffffa1e8c005                LelcConn_Is_Next_Frame_Slave_Activity
                0xffffffffa1e8c151                LelcConn_Is_Next_Frame_Master_Activity
                0xffffffffa1e8c265                Lelcdl_Is_Link_Used
                0xffffffffa1e8c275                Lelcdl_Alloc_Link
                0xffffffffa1e8c2f5                Lelc_Clear_Conf_Link_Update_Pending
                0xffffffffa1e8c30d                Lelc_Conf_Link_Sort
                0xffffffffa1e8c369                Lelc_Conf_Link_Add
                0xffffffffa1e8c431                Lelc_Conf_Link_Check
                0xffffffffa1e8c451                Lelc_Conf_Offset_Sort
                0xffffffffa1e8c4a5                Lelc_Conf_Offset_Gap
                0xffffffffa1e8c4c1                Lelc_Conf_Max_Offset_Gap
                0xffffffffa1e8c5b1                Lelcdl_Set_Next_Conn_Event_Count
                0xffffffffa1e8c5c1                Lelcdl_Is_Master_Update_Pending
                0xffffffffa1e8c60d                Lelcdl_Set_Operation_Pending_Bit
                0xffffffffa1e8c619                Lelcdl_Reset_Operation_Pending
                0xffffffffa1e8c621                Lelcdl_Get_Operation_Pending_Bit
                0xffffffffa1e8c62d                Lelcdl_Update_Supervision_Timeout
                0xffffffffa1e8c649                Lelc_Conf_Min_Offset_Gap
                0xffffffffa1e8c729                Lelc_Conf_Link_Slave_Check
                0xffffffffa1e8c771                Lelc_Conf_Link_Array_Init
                0xffffffffa1e8c7e9                Lelcdl_Free_Link
                0xffffffffa1e8c891                lelc_sleep
                0xffffffffa1e8c895                LELCsleep_Wakeup
                0xffffffffa1e8c8f5                Lelcacc_Record_Rx_CRC_Event_Channel
                0xffffffffa1e8c959                Lelcacc_Record_No_Rx_Packet
                0xffffffffa1e8c989                Lelcacc_Get_Rssi
                0xffffffffa1e8c9b5                Lelcacc_Calculate_Rssi_Average
                0xffffffffa1e8ca35                BTtimer_Set_Slots
                0xffffffffa1e8ca6d                BTtimer_Set_Ticks
                0xffffffffa1e8ca99                BTtimer_Is_Expired
                0xffffffffa1e8cad1                BTtimer_Piconet_Reset_Slots
                0xffffffffa1e8cae1                BTtimer_Piconet_if_Expired
                0xffffffffa1e8cb09                BTtimer_Piconet_Reset_Delta_Slots
                0xffffffffa1e8cb45                BTtimer_Is_Expired_For_Time
                0xffffffffa1e8cb5d                BTtst_Get_DUT_Mode
                0xffffffffa1e8cb69                EncodeDataParam
                0xffffffffa1e8cc49                EncodeData
                0xffffffffa1e8ccc1                SYSrand_Get_Rand
                0xffffffffa1e8cd09                SYSrand_Get_Rand_Ex
                0xffffffffa1e8cd54                SYSconst_Packet_Length
                0xffffffffa1e8cd74                SYSconst_EDR_Packet_Length
                0xffffffffa1e8cd95                TCeg_Command_Complete_Event
                0xffffffffa1e8cec8                tc_cmd_complete_event_array
                0xffffffffa1e8cf31                whitelist_item_check
                0xffffffffa1e8cfa1                LL_Whitelist_Check
                0xffffffffa1e8cfc9                LLch_Channel_Map_Update_Callback
                0xffffffffa1e8cfed                LLch_Start_Enc_Req_Callback
                0xffffffffa1e8d015                LL_Set_Operation_Pending_Timer
                0xffffffffa1e8d0a5                _Send_Ll_Control_PDU
                0xffffffffa1e8d29d                LLch_Pause_Enc_Rsp_Callback
                0xffffffffa1e8d2dd                LL_Auth_Payload_Timeout
                0xffffffffa1e8d311                LLch_Detach_Ack_Callback
                0xffffffffa1e8d35d                LL_Encode_Msg_Timeout
                0xffffffffa1e8d3d5                LLch_Start_Enc_Rsp_Callback
                0xffffffffa1e8d411                LLch_Connect_Update_Callback
                0xffffffffa1e8d448                LL_CONTROL_INFO_LEN
                0xffffffffa1e8d461                LLsec_Set_Next_Tx_Pkt_Cnt
                0xffffffffa1e8d489                LLsec_Set_Next_Rx_Pkt_Cnt
                0xffffffffa1e8d4b1                LLsec_Ccm_Decrypt
                0xffffffffa1e8d525                LLsec_Ccm_Encrypt
                0xffffffffa1e8d581                LLsec_Set_Local_Sec_Param
                0xffffffffa1e8d5a5                LLlink_Prepare_Fill_Conn_Remote_Param
                0xffffffffa1e8d605                LLlink_Move_Conn_Anchor_Point_Slave
                0xffffffffa1e8d64d                LLlink_Move_Conn_Anchor_Point_Master
                0xffffffffa1e8d68d                LLlink_Auth_Payload_Timeout_Event
                0xffffffffa1e8d6a9                LLlink_Encrypt_Keyrefresh_Complete_Event
                0xffffffffa1e8d6c9                LLlink_Encryption_Change_Event
                0xffffffffa1e8d6f1                LLlink_Feedback_Sec_Result
                0xffffffffa1e8d715                LLlink_Connect_Update_Complete_Event
                0xffffffffa1e8d74d                connect_complete_event
                0xffffffffa1e8d7d5                LLlink_Remote_Features_Complete_Event
                0xffffffffa1e8d81d                LLlink_Remote_Version_Complete_Event
                0xffffffffa1e8d875                LLlink_Disconnection_Complete_Event
                0xffffffffa1e8d8dd                LLlink_Supervision_Timeout_Check
                0xffffffffa1e8d919                LLlink_Connection_Complete_Event
                0xffffffffa1e8d93d                Lelcscan_wait_for_next_scan
                0xffffffffa1e8d961                Lelcscan_check_advert_pkt
                0xffffffffa1e8da29                Lelcscan_continue_scan_advert
                0xffffffffa1e8da51                Lelcscan_prepare_scan
                0xffffffffa1e8da89                Lelcscan_Send_Advert_Report
                0xffffffffa1e8dab5                Lelcscan_Add_A_Duplicate_Addr
                0xffffffffa1e8daf1                Lelcscan_Is_A_Duplicate_Addr
                0xffffffffa1e8db39                Lelcscan_gen_advert_report
                0xffffffffa1e8db89                Lelcscan_scan
                0xffffffffa1e8dd45                Lelcadvert_Stop
                0xffffffffa1e8dd75                Lelcadvert_Wait_for_next_Connect_Event_window
                0xffffffffa1e8ddb1                Lelcadvert_send_adv_pkt
                0xffffffffa1e8de15                Lelcadvert_Init_Link
                0xffffffffa1e8dedd                Lelcadvert_receive_pkt_check
                0xffffffffa1e8dfc5                Lelcadvert_prepare_next_packet
                0xffffffffa1e8e011                Lelcadvert_advert
                0xffffffffa1e8e2e5                hw_memcpy8
                0xffffffffa1e8e2fd                hw_memset8
                0xffffffffa1e8e30d                SYSirq_Check_IRQ_Num_Handler
                0xffffffffa1e8e351                SYSirq_Disable_Interrupts_Save_Flags
                0xffffffffa1e8e371                SYSirq_Interrupts_Restore_Flags
                0xffffffffa1e8e38d                SYSpwr_Halt_Fun
                0xffffffffa1e8e3ad                SYSpwr_LowFrequencyOscillatorAvailable
                0xffffffffa1e8e3b9                SYSpwr_Setup_Sleep_Timer
                0xffffffffa1e8e461                SYSpwr_Get_Min_Frames_To_Sleep
                0xffffffffa1e8e465                SYSpwr_use_lf_change
                0xffffffffa1e8e485                _SYSpwr_Setup_26M
                0xffffffffa1e8e4e9                SYSpwr_Sleep_System
                0xffffffffa1e8e535                SYSpwr_Halt_System
                0xffffffffa1e8e601                SYSpwr_Handle_Early_Wakeup
                0xffffffffa1e8e651                _HWradio_SetGios_Standby
                0xffffffffa1e8e769                _HWradio_SetGios_TxRx
                0xffffffffa1e8e8dd                _HWradio_SetGios_FullRx
                0xffffffffa1e8e981                _HWradio_SetGios_SlavePageResp
                0xffffffffa1e8ea05                _HWradio_SetGios_MasterDoub
                0xffffffffa1e8eb09                HWradio_Rx_PacketExtend
                0xffffffffa1e8ebb5                HWradio_Tx_PacketExtend
                0xffffffffa1e8ec59                HWradio_SetNextFrameTxRX_Low
                0xffffffffa1e8ec99                HWradio_SetCurrentFrameTx_Low
                0xffffffffa1e8ecd1                HWradio_SetCurrentFrameRx_Low
                0xffffffffa1e8ed01                HWradio_SetNextFrameTxRX_on
                0xffffffffa1e8ed41                HWradio_SetTXRX_ovrridelow
                0xffffffffa1e8edb9                HWradio_SetTX_ovrridelow
                0xffffffffa1e8ee0d                HWradio_SetRX_ovrridelow
                0xffffffffa1e8ee4d                HWradio_CancelTXRX_ovrridelow
                0xffffffffa1e8eec9                HWradio_TxComplete
                0xffffffffa1e8ef85                HWradio_RxComplete
                0xffffffffa1e8f035                HWradio_GetRadioMode
                0xffffffffa1e8f041                HWradio_Set_Tx_Power_Level
                0xffffffffa1e8f05d                Convert_RSSI_to_dBm_
                0xffffffffa1e8f081                HWradio_Read_RSSI
                0xffffffffa1e8f0ad                HWradio_Exit_Low_Power_Mode_Request
                0xffffffffa1e8f0e5                HWradio_Get_Radio_Driver_Status
                0xffffffffa1e8f0f1                _HWhab_Write_Serial_Word
                0xffffffffa1e8f10d                HWradio_SetFrequency_Command
                0xffffffffa1e8f215                _HWhab_Read_Serial_Word
                0xffffffffa1e8f279                HWradio_Update_Internal_RSSI_Cache
                0xffffffffa1e8f2a9                HWradio_Setup_Radio_For_Next_Half_Slot
                0xffffffffa1e8f565                _HWradio_ProgNow
                0xffffffffa1e8f5c9                hwradio_write_LE_Freq
                0xffffffffa1e8f5f9                HWradio_Service
                0xffffffffa1e8f97d                HWradio_Enter_Low_Power_Mode_Request
                0xffffffffa1e8fa09                HWradio_SetFrequency
                0xffffffffa1e8fa29                HWradio_SetRadioMode
                0xffffffffa1e8fbe5                SYS_ASSERT
                0xffffffffa1e8fbfc                BTCPU_SendEvent
                0xffffffffa1e8fc91                SYS_SendEvent
                0xffffffffa1e8fcb5                excu_trap_fun1
                0xffffffffa1e8fccd                excu_trap_fun2
                0xffffffffa1e8fce5                excu_trap_fun3
                0xffffffffa1e8fcfd                excu_trap_fun4
                0xffffffffa1e8fd15                excu_trap_fun5
                0xffffffffa1e8fd2d                excu_trap_fun6
                0xffffffffa1e8fd45                excu_trap_fun7
                0xffffffffa1e8fd5d                excu_trap_fun8
                0xffffffffa1e8fd75                excu_trap_fun9
                0xffffffffa1e8fd8d                excu_trap_fun10
                0xffffffffa1e8fda5                excu_trap_fun11
                0xffffffffa1e8fdbd                excu_trap_fun12
                0xffffffffa1e8fdd5                excu_trap_fun13
                0xffffffffa1e8fded                excu_trap_fun14
                0xffffffffa1e8fe05                excu_trap_fun15
                0xffffffffa1e8fe1d                excu_trap_fun16

.bt_introm_data
                0xffffffffa1c80180       0xa0 load address 0xffffffffa1e8fe40
 build/5856T_nolcd/btcpu/RDA5856/stripped_BTCPU_rom_elf_file.elf(.bt_introm_data)
 .bt_introm_data
                0xffffffffa1c80180       0xa0 build/5856T_nolcd/btcpu/RDA5856/stripped_BTCPU_rom_elf_file.elf
                0xffffffffa1c80180                btcpu_error_code
                0xffffffffa1c80184                btcpu_error_status
                0xffffffffa1c80188                btcpu_sp_context
                0xffffffffa1c8018c                calibration_counter_1us
                0xffffffffa1c80190                lelcacc_max_payload_length
                0xffffffffa1c80194                rx_patten_data
                0xffffffffa1c80198                rx_result_buff
                0xffffffffa1c801b0                RDA_TEST_MODE_AM_ADDR
                0xffffffffa1c801b1                _r2p_min_search_window
                0xffffffffa1c801b4                lelc_test_accessword
                0xffffffffa1c801b8                lelc_sca_table
                0xffffffffa1c801c8                g_le_mini_sleep_slot
                0xffffffffa1c801c9                rssi_avager_low_th
                0xffffffffa1c801ca                rssi_avager_high_th
                0xffffffffa1c801cc                LL_CONTROL_INFO_TIMER_FLAG
                0xffffffffa1c801d0                lelc_conn_update_gap
                0xffffffffa1c801d4                _driver_status
                0xffffffffa1c801d8                rda5856_trap_table

.bt_rom_uncached
                0xffffffffa1c80220      0x104
 build/5856T_nolcd/btcpu/RDA5856/stripped_BTCPU_rom_elf_file.elf(.bt_rom_uncached)
 .bt_rom_uncached
                0xffffffffa1c80220      0x104 build/5856T_nolcd/btcpu/RDA5856/stripped_BTCPU_rom_elf_file.elf
                0xffffffffa1c80220                g_sys_config

.bt_rom_inter_ram
                0xffffffffa1c80324     0x3a2c
 build/5856T_nolcd/btcpu/RDA5856/stripped_BTCPU_rom_elf_file.elf(.bt_rom_inter_ram)
 .bt_rom_inter_ram
                0xffffffffa1c80324     0x3a2c build/5856T_nolcd/btcpu/RDA5856/stripped_BTCPU_rom_elf_file.elf
                0xffffffffa1c80324                SHA_256_H
                0xffffffffa1c80344                SHA_256_W
                0xffffffffa1c80384                g_sec_link
                0xffffffffa1c80388                SHA_256_add_one
                0xffffffffa1c80389                SHA_256_total_len
                0xffffffffa1c8038a                SHA_256_buff_len
                0xffffffffa1c8038c                Cache_JAL_NATIVE_CLK
                0xffffffffa1c80390                Cache_JAL_BT_CLK_OFFSET
                0xffffffffa1c80394                count_repeat
                0xffffffffa1c80398                calib_count
                0xffffffffa1c8039c                Cache_JAL_COM_CTRL_IRQ_REG
                0xffffffffa1c803a0                hw_delay_counter
                0xffffffffa1c803a4                BTq_sco_out
                0xffffffffa1c803b8                BTq_data_memory
                0xffffffffa1c80a78                BTQueues
                0xffffffffa1c80f1c                BTq_l2cap_out
                0xffffffffa1c80f30                lmp_in_heap
                0xffffffffa1c80f80                BTq_l2cap_in
                0xffffffffa1c80f94                ll_in_headers
                0xffffffffa1c81024                hci_event_headers
                0xffffffffa1c810e4                BTq_sco_in
                0xffffffffa1c810f8                BTq_ll_out
                0xffffffffa1c8110c                hci_event_heap
                0xffffffffa1c8140c                BTq_lmp_out
                0xffffffffa1c81420                lmp_in_headers
                0xffffffffa1c814e0                ll_in_heap
                0xffffffffa1c81530                _queue_filter
                0xffffffffa1c81534                eSCO_Tx_Buffers
                0xffffffffa1c81538                sco_out_heaps
                0xffffffffa1c8153c                sco_in_heaps
                0xffffffffa1c81540                eSCO_Tx_Descriptor
                0xffffffffa1c81544                acl_container_buff
                0xffffffffa1c81548                hci_event_mask
                0xffffffffa1c8154c                hci_le_event_mask
                0xffffffffa1c81550                hci_event_mask_extended
                0xffffffffa1c81554                page_complete_status
                0xffffffffa1c81558                name_timer
                0xffffffffa1c8155c                _LMch_p_pending_link
                0xffffffffa1c81560                link_container
                0xffffffffa1c81564                lmp_link_pool
                0xffffffffa1c81568                dev_index_2_p_link
                0xffffffffa1c81578                esco_slave_cvds_rx
                0xffffffffa1c81579                _LMpol_prev_slots_tx
                0xffffffffa1c8157a                _LMpol_last_active_sco_index
                0xffffffffa1c8157b                _LMpol_last_active_device_index
                0xffffffffa1c8157c                _LMpol_call_lc_wakeup
                0xffffffffa1c8157d                num_link_keys
                0xffffffffa1c81580                _LMscoctr_lm_sco_handle_for_last_slave_LMP_sco_link_req
                0xffffffffa1c81584                _LMscoctr_Topical_eSco_Link_Transaction_Type
                0xffffffffa1c81588                _LMscoctr_number_scos_used
                0xffffffffa1c8158c                _p_LMscoctr_Topical_eSco_Link
                0xffffffffa1c81590                LMscoctr_saved_state
                0xffffffffa1c81594                _LMeScoctr_number_escos_used
                0xffffffffa1c81596                _LMscoctr_Topical_Voice_Setting
                0xffffffffa1c81598                _LMscoctr_esco_retrans_mode
                0xffffffffa1c8159c                _LMscoctr_Negotiate_SCO_descr
                0xffffffffa1c815ac                _LMeScoctr_d_esco_calculator_bitmap
                0xffffffffa1c815bc                LMscoctr_eSCO_Host_Constraints
                0xffffffffa1c815cc                _LMscoctr_current_negotiate
                0xffffffffa1c815d8                LMscoctr_eSCO_Scratchpad
                0xffffffffa1c815f0                sco_link_container
                0xffffffffa1c8164c                num_inquiry_filters
                0xffffffffa1c8164d                num_connection_filters
                0xffffffffa1c81650                g_LM_device_state
                0xffffffffa1c81654                g_LM_config_info
                0xffffffffa1c816e8                remote_name_string
                0xffffffffa1c817e0                device_name_string
                0xffffffffa1c818d8                g_LM_test_device_role
                0xffffffffa1c818dc                LM_Scan
                0xffffffffa1c81904                inq_scan_act
                0xffffffffa1c81910                page_scan_act
                0xffffffffa1c8191c                inquiry_result
                0xffffffffa1c81938                inq_results
                0xffffffffa1c819b0                LM_Inq
                0xffffffffa1c819d8                lm_timer_head
                0xffffffffa1c819dc                lm_timers
                0xffffffffa1c81cd4                _LMafh_AFH_update_timer_index
                0xffffffffa1c81cd8                _LMafh_AFH_request_channel_classification_on_piconets
                0xffffffffa1c81cd9                _LMafh_AFH_LMP_channel_classification_pending_on_piconets
                0xffffffffa1c81cda                _LMafh_AFH_channel_assessment_mode
                0xffffffffa1c81cdb                _LMafh_AFH_control_byte
                0xffffffffa1c81cdc                _LMafh_AFH_LMP_set_afh_pending_on_am_addrs
                0xffffffffa1c81ce0                LC_local_device_fhs
                0xffffffffa1c81cf4                lc_call_back_list
                0xffffffffa1c81d4c                clk_offset
                0xffffffffa1c81d50                LSLCass_previous_nak_channel
                0xffffffffa1c81d51                LSLCass_control_log
                0xffffffffa1c81d52                LSLCass_num_channels_unused
                0xffffffffa1c81d54                _assessment
                0xffffffffa1c81d64                LSLCass_freq_interference
                0xffffffffa1c81db4                _LSLCfreq_tx_lookahead_freq_start
                0xffffffffa1c81db8                _LSLCfreq_channel
                0xffffffffa1c81dbc                LSLCfreq_last_freq_clk
                0xffffffffa1c81dc0                _LSLCfreq_tx_lookahead_clock
                0xffffffffa1c81dc4                _LSLCfreq_tx_lookahead_afh_mode
                0xffffffffa1c81dc5                _LSLCfreq_tx_lookahead_piconet_index
                0xffffffffa1c81dc8                _Page_Inquiry_Frequency_Table
                0xffffffffa1c81e08                _Page_Scan_Frequency_Table
                0xffffffffa1c81e48                LSLChop_hs_kernel
                0xffffffffa1c81e58                LSLChop_hs_engine
                0xffffffffa1c81e78                total_received_packet
                0xffffffffa1c81e7c                total_test_packet
                0xffffffffa1c81e80                _was_previous_rx_slot_a_scan
                0xffffffffa1c81e81                LSLCacc_last_rx_LMP_msg
                0xffffffffa1c81e84                Saved_DWH2_INIT
                0xffffffffa1c81e88                bbtest_stop
                0xffffffffa1c81e8c                rx_test_patten
                0xffffffffa1c81e90                total_error_packet
                0xffffffffa1c81e94                lslc_acc_shadow_sco_route_
                0xffffffffa1c81e98                total_error_bit
                0xffffffffa1c81e9c                lslc_acc_recent_rssi_available_
                0xffffffffa1c81ea0                bt_rx_test_enable
                0xffffffffa1c81ea4                total_received_bits
                0xffffffffa1c81ea8                bbtest_tx_new_packet
                0xffffffffa1c81eaa                lslc_acc_shadow_sco_cfg_
                0xffffffffa1c81eac                Saved_DWH1_INIT
                0xffffffffa1c81eb0                LSLC_PSKEY_REG
                0xffffffffa1c81ebc                bbtest_param
                0xffffffffa1c81ed0                _ctrl_reg_shadow
                0xffffffffa1c81ef4                set_rx_on
                0xffffffffa1c81ef5                le_mode_running
                0xffffffffa1c81ef8                stored_p_clk
                0xffffffffa1c81efc                _LSLCslot_state
                0xffffffffa1c81f00                _LSLCslot_eSCO_tx_3slot_packet_expected
                0xffffffffa1c81f01                _LSLCslot_eSCO_rx_3slot_packet_expected
                0xffffffffa1c81f04                registered_clk_workaround
                0xffffffffa1c81f08                registered_callback_function
                0xffffffffa1c81f0c                monitors
                0xffffffffa1c81fb0                _LSLCafh_AFH_hse_kernel
                0xffffffffa1c82340                _LSLCafh_AFH_link
                0xffffffffa1c82360                LSLCcls_device_channel_map
                0xffffffffa1c8236c                LSLCcls_AFH_channel_classification
                0xffffffffa1c823bc                _chan_ctrl
                0xffffffffa1c823e4                _activity
                0xffffffffa1c8240c                testmode_ctrl
                0xffffffffa1c82438                _inquiry_info
                0xffffffffa1c8255c                _inquiryScan_info
                0xffffffffa1c82680                _page_info
                0xffffffffa1c826b0                _pageScan_info
                0xffffffffa1c826ec                switch_flag
                0xffffffffa1c826f0                _mss_info
                0xffffffffa1c828a0                g_phy_cfg
                0xffffffffa1c828a4                _sleep_info
                0xffffffffa1c828bc                unsniff_rxon_pretime
                0xffffffffa1c828c0                _r2p_info
                0xffffffffa1c828e4                g_min_wakeup_interval
                0xffffffffa1c828e8                _sp_info
                0xffffffffa1c828ec                DL_amaddr_pool
                0xffffffffa1c828f0                DL_LC_link_pool
                0xffffffffa1c828f4                DL_piconet_index_pool
                0xffffffffa1c828f8                DL_transmit_descr
                0xffffffffa1c82910                ss_output
                0xffffffffa1c82934                lelc_adv_packet
                0xffffffffa1c82960                lelcacc_radio_timing
                0xffffffffa1c82978                lelc_rxtest_freq
                0xffffffffa1c8297c                lelcpkt_active_device_link_ref
                0xffffffffa1c82980                lelc_txtest
                0xffffffffa1c82982                lelc_rxtest_packetcount
                0xffffffffa1c82984                lelc_rxtest
                0xffffffffa1c82985                lelc_local_sca
                0xffffffffa1c82988                lelc_chan_info
                0xffffffffa1c82990                le_init_info
                0xffffffffa1c829c8                current_active_device_link
                0xffffffffa1c829cc                rssi_average_closed
                0xffffffffa1c829d0                lelc_link_num
                0xffffffffa1c829d4                lelc_link_pool
                0xffffffffa1c829d8                lelc_conf_interval
                0xffffffffa1c82a64                lelc_sleep_info
                0xffffffffa1c82a78                rssi_noise_average
                0xffffffffa1c82a7c                rssi_counter
                0xffffffffa1c82a80                rx_no_pkd
                0xffffffffa1c82acc                rx_crc_error_channel_table
                0xffffffffa1c82b18                rx_crc_correct_channel_table
                0xffffffffa1c82b64                crc_rate_table
                0xffffffffa1c82b8c                rssi_rate_table
                0xffffffffa1c82bb4                Lelcacc_num_channels_unused
                0xffffffffa1c82bb6                LeLcacc_num_received_for_rssi
                0xffffffffa1c82bb8                rssi_currect_value
                0xffffffffa1c82bbc                rssi_currect_noise_value
                0xffffffffa1c82bc0                LeLcacc_num_received_pkd_start
                0xffffffffa1c82bc2                LeLcacc_num_received_for_calu
                0xffffffffa1c82bc4                BTtst_dut_mode
                0xffffffffa1c82bc8                BTtst_loopback_info
                0xffffffffa1c82bd0                BTms_data_flag
                0xffffffffa1c82bd1                _BTms_pending_hc_reset
                0xffffffffa1c82bd4                init_filter
                0xffffffffa1c82bd8                g_deviceLinkSet
                0xffffffffa1c83a0c                srand_seed
                0xffffffffa1c83a10                _tra_hcit_active
                0xffffffffa1c83a14                sys_hcit_info
                0xffffffffa1c83a18                hci_generic_event_callback
                0xffffffffa1c83a1c                TRAhcit_Register
                0xffffffffa1c83a20                sys_hcit_uart_info
                0xffffffffa1c83a64                tra_hcit_uart_rx_buf
                0xffffffffa1c83a68                tra_hcit_uart_rx_state
                0xffffffffa1c83a6c                tra_hcit_uart_cur_tx_pointer
                0xffffffffa1c83a70                tra_hcit_uart_rx_length
                0xffffffffa1c83a74                tra_hcit_uart_tx_pdu_length
                0xffffffffa1c83a78                tra_hcit_uart_tx_original_length
                0xffffffffa1c83a7c                tra_hcit_uart_tx_pdu_buf
                0xffffffffa1c83a80                tra_hcit_uart_tx_state
                0xffffffffa1c83a84                tra_hcit_uart_rx_head_buf
                0xffffffffa1c83a88                tra_hcit_uart_pend_length
                0xffffffffa1c83a8a                tra_hcit_uart_rx_type
                0xffffffffa1c83a8c                tra_hcit_uart_cur_tx_length
                0xffffffffa1c83a90                tra_hcit_uart_hardware_error_event_flag
                0xffffffffa1c83a94                g_pending_sco_packet
                0xffffffffa1c83a98                cmd_buf_index
                0xffffffffa1c83a9a                orign_opcode
                0xffffffffa1c83a9c                opcode_force
                0xffffffffa1c83a9d                _LMPdisp_dispatched_pdu_length
                0xffffffffa1c83aa0                ll_whitelist
                0xffffffffa1c83ab0                ll_whitelist_item
                0xffffffffa1c83b00                LSLCpkt_Active_Tx_Device_Link_Ref
                0xffffffffa1c83b04                LSLCpkt_Active_Rx_Device_Link_Ref
                0xffffffffa1c83b08                stAdv_Ind
                0xffffffffa1c83b34                stScan_Resp
                0xffffffffa1c83b60                le_scan_info
                0xffffffffa1c83be8                le_advert_info
                0xffffffffa1c83c84                fc56_response
                0xffffffffa1c83c8c                param_fortest
                0xffffffffa1c83c94                LowFrequencyOscillatorAvailable
                0xffffffffa1c83c98                g_rda_mode_config
                0xffffffffa1c83c9c                syspwr_low_power_mode_active_
                0xffffffffa1c83c9e                g_host_wake_event1
                0xffffffffa1c83ca0                fun_in_ram
                0xffffffffa1c83ca4                syspwr_num_frames_to_sleep_
                0xffffffffa1c83ca8                g_host_wake_pause_length
                0xffffffffa1c83cac                p_Wake_Host_Fun
                0xffffffffa1c83cb0                host_wake_value
                0xffffffffa1c83cb2                g_host_wake_event2
                0xffffffffa1c83cb4                g_host_wake_length
                0xffffffffa1c83cb6                g_host_wake_flag
                0xffffffffa1c83cb8                trap_fun16
                0xffffffffa1c83cbc                trap_fun1
                0xffffffffa1c83cc0                trap_fun6
                0xffffffffa1c83cc4                trap_fun8
                0xffffffffa1c83cc8                trap_fun13
                0xffffffffa1c83ccc                trap_fun7
                0xffffffffa1c83cd0                trap_fun2
                0xffffffffa1c83cd4                trap_fun12
                0xffffffffa1c83cd8                trap_fun10
                0xffffffffa1c83cdc                trap_fun5
                0xffffffffa1c83ce0                trap_fun15
                0xffffffffa1c83ce4                trap_fun4
                0xffffffffa1c83ce8                trap_fun3
                0xffffffffa1c83cec                trap_fun14
                0xffffffffa1c83cf0                trap_fun11
                0xffffffffa1c83cf4                trap_fun9
                0xffffffffa1c83cf8                _i2c_seq_read_soft
                0xffffffffa1c83cfc                _i2c_seq_write_soft
                0xffffffffa1c83d00                CurrentRadioMode
                0xffffffffa1c83d04                PacketExtensionActive
                0xffffffffa1c83d05                TxPacketExtensionActive
                0xffffffffa1c83d06                RxPacketExtensionActive
                0xffffffffa1c83d07                Tim_bit_count_synch
                0xffffffffa1c83d08                radio_set_to_tx
                0xffffffffa1c83d09                radio_set_to_rx
                0xffffffffa1c83d0c                Gio_tim3_change
                0xffffffffa1c83d10                raw_rssi
                0xffffffffa1c83d14                Driver_Data
                0xffffffffa1c83d20                tx_pwr_level_
                0xffffffffa1c83d24                Channels_Table
                0xffffffffa1c83d28                ser_config_word_cache
                0xffffffffa1c83d2c                SerialData0Frequency
                0xffffffffa1c83d30                Requested_RadioMode
                0xffffffffa1c83d34                g_pBT_Host_Config
                0xffffffffa1c83d38                max_data
                0xffffffffa1c83d3c                max_msg
                0xffffffffa1c83d40                host_timers
                0xffffffffa1c83d44                security_want_keytype
                0xffffffffa1c83d46                pendingSecHandle
                0xffffffffa1c87ff0                _bt_sram_non_romed_top

.bt_inter_rom.crc
                0xffffffffa1e8fffc        0x4
 build/5856T_nolcd/btcpu/RDA5856/stripped_BTCPU_rom_elf_file.elf(.bt_inter_rom.crc)
 .bt_inter_rom.crc
                0xffffffffa1e8fffc        0x4 build/5856T_nolcd/btcpu/RDA5856/stripped_BTCPU_rom_elf_file.elf
                0xffffffffa80caa00                . = _flash_end
                0xffffffffa80caa00                _res_data_flash_start_location = .

.res            0xffffffffa80caa00    0x23354
 *res.bin.o(.data .data.*)
 .data          0xffffffffa80caa00    0x23354 D:/rda5981/code/IoT-RDA5836_3.3/build/5856T_nolcd/res.bin.o
                0xffffffffa80caa00                _binary_D__rda5981_code_IoT_RDA5836_3_3_target_5856T_nolcd_resource_res_bin_start
                0xffffffffa80edd54                _binary_D__rda5981_code_IoT_RDA5836_3_3_target_5856T_nolcd_resource_res_bin_end
                0xffffffffa80edd54                _res_data_end = .

.user_data      0xffffffffa80fc000        0x0
                0xffffffffa80fc000                _user_data_start = .
 *user.bin.o(.user_data)
 *(.user_data)
                0xffffffffa80fc000                _user_data_end = .
                0x0000000000000000                _user_data_size = (_user_data_end - _user_data_start)
                0x0000000000000001                ASSERT ((ABSOLUTE (_user_data_start) > ABSOLUTE (_res_data_end)), Flash overflow: there is no more space available in flash memory.)

.calib          0xffffffffa80fe000        0x0
                0xffffffffa80fe000                _calib_start = .
 *(.calib)
                0xffffffffa80fe000                . = ALIGN (0x10)
                0xffffffffa80fe000                _calib_end = .
                0x0000000000000000                _calib_size = (_calib_end - _calib_start)

.factory_settings
                0xffffffffa80ff000        0x0
                0xffffffffa80ff000                _factory_start = .
 *(.factory_settings)
                0xffffffffa80ff000                . = ALIGN (0x10)
                0xffffffffa80ff000                _factory_end = .
                0x0000000000000000                _factory_size = (_factory_end - _factory_start)
                0x0000000000000001                ASSERT (((ABSOLUTE (_calib_start) >= ABSOLUTE (_user_data_end)) || (ABSOLUTE (_factory_start) > ABSOLUTE (_code_base))), Calib data is overlapped with user data or factory data is overlapped with code.)
                0x0000000000000001                ASSERT ((ABSOLUTE (_factory_start) >= ABSOLUTE (_calib_start)), Factory setting data is overlapped with calib data.)

.debug
 *(EXCLUDE_FILE(*.elf) .debug)

.line
 *(EXCLUDE_FILE(*.elf) .line)

.debug_srcinfo
 *(EXCLUDE_FILE(*.elf) .debug_srcinfo)

.debug_sfnames
 *(EXCLUDE_FILE(*.elf) .debug_sfnames)

.debug_aranges  0x0000000000000000     0xed60
 *(EXCLUDE_FILE(*.elf) .debug_aranges)
 .debug_aranges
                0x0000000000000000     0xed60 build/5856T_nolcd/btcpu/RDA5856/XCPU_elf_file.elf-stripped

.debug_pubnames
                0x0000000000000000    0x300d3
 *(EXCLUDE_FILE(*.elf) .debug_pubnames)
 .debug_pubnames
                0x0000000000000000    0x300d3 build/5856T_nolcd/btcpu/RDA5856/XCPU_elf_file.elf-stripped

.debug_info     0x0000000000000000   0x1d718a
 *(EXCLUDE_FILE(*.elf) .debug_info .gnu.linkonce.wi.*)
 .debug_info    0x0000000000000000   0x1d718a build/5856T_nolcd/btcpu/RDA5856/XCPU_elf_file.elf-stripped

.debug_abbrev   0x0000000000000000    0x3c78a
 *(EXCLUDE_FILE(*.elf) .debug_abbrev)
 .debug_abbrev  0x0000000000000000    0x3c78a build/5856T_nolcd/btcpu/RDA5856/XCPU_elf_file.elf-stripped

.debug_line     0x0000000000000000    0x6520a
 *(EXCLUDE_FILE(*.elf) .debug_line)
 .debug_line    0x0000000000000000    0x6520a build/5856T_nolcd/btcpu/RDA5856/XCPU_elf_file.elf-stripped

.debug_frame    0x0000000000000000    0x28d88
 *(EXCLUDE_FILE(*.elf) .debug_frame)
 .debug_frame   0x0000000000000000    0x28d88 build/5856T_nolcd/btcpu/RDA5856/XCPU_elf_file.elf-stripped

.debug_str      0x0000000000000000    0x65a87
 *(EXCLUDE_FILE(*.elf) .debug_str)
 .debug_str     0x0000000000000000    0x65a87 build/5856T_nolcd/btcpu/RDA5856/XCPU_elf_file.elf-stripped

.debug_loc      0x0000000000000000    0xad1dc
 *(EXCLUDE_FILE(*.elf) .debug_loc)
 .debug_loc     0x0000000000000000    0xad1dc build/5856T_nolcd/btcpu/RDA5856/XCPU_elf_file.elf-stripped

.debug_macinfo
 *(EXCLUDE_FILE(*.elf) .debug_macinfo)

.debug_weaknames
 *(EXCLUDE_FILE(*.elf) .debug_weaknames)

.debug_funcnames
 *(EXCLUDE_FILE(*.elf) .debug_funcnames)

.debug_typenames
 *(EXCLUDE_FILE(*.elf) .debug_typenames)

.debug_varnames
 *(EXCLUDE_FILE(*.elf) .debug_varnames)

.stab
 *(EXCLUDE_FILE(*.elf) .stab)

.stabstr
 *(EXCLUDE_FILE(*.elf) .stabstr)

.stab.excl
 *(EXCLUDE_FILE(*.elf) .stab.excl)

.stab.exclstr
 *(EXCLUDE_FILE(*.elf) .stab.exclstr)

.stab.index
 *(EXCLUDE_FILE(*.elf) .stab.index)

.stab.indexstr
 *(EXCLUDE_FILE(*.elf) .stab.indexstr)

.comment        0x0000000000000000       0x31
 *(EXCLUDE_FILE(*.elf) .comment)
 .comment       0x0000000000000000       0x31 build/5856T_nolcd/btcpu/RDA5856/XCPU_elf_file.elf-stripped

.gptab.sdata
 *(.gptab.data)
 *(.gptab.sdata)

.gptab.sbss
 *(.gptab.bss)
 *(.gptab.sbss)

/DISCARD/
 *(*)
OUTPUT(D:/rda5981/code/IoT-RDA5836_3.3/build/5856T_nolcd/RDA5856/5856T_nolcd_debug.elf elf32-littlemips)
